
StabilitiQ.elf:     file format elf32-littlenios2
StabilitiQ.elf
architecture: nios2:r1, flags 0x00000112:
EXEC_P, HAS_SYMS, D_PAGED
start address 0x00020224

Program Header:
    LOAD off    0x00001000 vaddr 0x00020000 paddr 0x00020000 align 2**12
         filesz 0x00000020 memsz 0x00000020 flags r-x
    LOAD off    0x00001020 vaddr 0x00020020 paddr 0x00020020 align 2**12
         filesz 0x000136c8 memsz 0x000136c8 flags r-x
    LOAD off    0x000146e8 vaddr 0x000336e8 paddr 0x00034374 align 2**12
         filesz 0x00000c8c memsz 0x00000c8c flags rw-
    LOAD off    0x00016000 vaddr 0x00035000 paddr 0x00035000 align 2**12
         filesz 0x00000000 memsz 0x00000204 flags rw-

Sections:
Idx Name          Size      VMA       LMA       File off  Algn
  0 .entry        00000020  00020000  00020000  00001000  2**5
                  CONTENTS, ALLOC, LOAD, READONLY, CODE
  1 .exceptions   00000204  00020020  00020020  00001020  2**2
                  CONTENTS, ALLOC, LOAD, READONLY, CODE
  2 .text         000123a0  00020224  00020224  00001224  2**2
                  CONTENTS, ALLOC, LOAD, READONLY, CODE
  3 .rodata       00001124  000325c4  000325c4  000135c4  2**2
                  CONTENTS, ALLOC, LOAD, READONLY, DATA
  4 .rwdata       00000c8c  000336e8  00034374  000146e8  2**2
                  CONTENTS, ALLOC, LOAD, DATA, SMALL_DATA
  5 .bss          00000204  00035000  00035000  00016000  2**2
                  ALLOC, SMALL_DATA
  6 .onchip_memory2_0 00000000  00035204  00035204  00015374  2**0
                  CONTENTS
  7 .comment      0000002d  00000000  00000000  00015374  2**0
                  CONTENTS, READONLY
  8 .debug_aranges 000011c8  00000000  00000000  000153a8  2**3
                  CONTENTS, READONLY, DEBUGGING, OCTETS
  9 .debug_info   00030a90  00000000  00000000  00016570  2**0
                  CONTENTS, READONLY, DEBUGGING, OCTETS
 10 .debug_abbrev 0000c2ba  00000000  00000000  00047000  2**0
                  CONTENTS, READONLY, DEBUGGING, OCTETS
 11 .debug_line   000182eb  00000000  00000000  000532ba  2**0
                  CONTENTS, READONLY, DEBUGGING, OCTETS
 12 .debug_frame  00002c38  00000000  00000000  0006b5a8  2**2
                  CONTENTS, READONLY, DEBUGGING, OCTETS
 13 .debug_str    0000493a  00000000  00000000  0006e1e0  2**0
                  CONTENTS, READONLY, DEBUGGING, OCTETS
 14 .debug_loc    0001ec7a  00000000  00000000  00072b1a  2**0
                  CONTENTS, READONLY, DEBUGGING, OCTETS
 15 .debug_alt_sim_info 00000040  00000000  00000000  00091794  2**2
                  CONTENTS, READONLY, DEBUGGING, OCTETS
 16 .debug_ranges 000024c0  00000000  00000000  000917d8  2**3
                  CONTENTS, READONLY, DEBUGGING, OCTETS
 17 .thread_model 00000003  00000000  00000000  000979cf  2**0
                  CONTENTS, READONLY
 18 .cpu          0000000c  00000000  00000000  000979d2  2**0
                  CONTENTS, READONLY
 19 .qsys         00000001  00000000  00000000  000979de  2**0
                  CONTENTS, READONLY
 20 .simulation_enabled 00000001  00000000  00000000  000979df  2**0
                  CONTENTS, READONLY
 21 .stderr_dev   00000006  00000000  00000000  000979e0  2**0
                  CONTENTS, READONLY
 22 .stdin_dev    00000006  00000000  00000000  000979e6  2**0
                  CONTENTS, READONLY
 23 .stdout_dev   00000006  00000000  00000000  000979ec  2**0
                  CONTENTS, READONLY
 24 .sopc_system_name 00000008  00000000  00000000  000979f2  2**0
                  CONTENTS, READONLY
 25 .quartus_project_dir 00000023  00000000  00000000  000979fa  2**0
                  CONTENTS, READONLY
SYMBOL TABLE:
00020000 l    d  .entry	00000000 .entry
00020020 l    d  .exceptions	00000000 .exceptions
00020224 l    d  .text	00000000 .text
000325c4 l    d  .rodata	00000000 .rodata
000336e8 l    d  .rwdata	00000000 .rwdata
00035000 l    d  .bss	00000000 .bss
00035204 l    d  .onchip_memory2_0	00000000 .onchip_memory2_0
00000000 l    d  .comment	00000000 .comment
00000000 l    d  .debug_aranges	00000000 .debug_aranges
00000000 l    d  .debug_info	00000000 .debug_info
00000000 l    d  .debug_abbrev	00000000 .debug_abbrev
00000000 l    d  .debug_line	00000000 .debug_line
00000000 l    d  .debug_frame	00000000 .debug_frame
00000000 l    d  .debug_str	00000000 .debug_str
00000000 l    d  .debug_loc	00000000 .debug_loc
00000000 l    d  .debug_alt_sim_info	00000000 .debug_alt_sim_info
00000000 l    d  .debug_ranges	00000000 .debug_ranges
00000000 l    df *ABS*	00000000 c:/intelProjects/stabilitiQ/quartus/software/StabilitiQ_bsp//obj/HAL/src/crt0.o
0002025c l       .text	00000000 alt_after_alt_main
00000000 l    df *ABS*	00000000 alt_irq_handler.c
00000000 l    df *ABS*	00000000 alt_instruction_exception_entry.c
00000000 l    df *ABS*	00000000 Hardware_In_Loop.c
00000000 l    df *ABS*	00000000 TopLevel.c
00034310 l     O .rwdata	00000004 state
00020d64 l     F .text	000000d8 state_INIT
0002067c l     F .text	000000e4 handle_hardware_IRQ
00020760 l     F .text	00000090 init_hardware_IRQ
00020e3c l     F .text	000002a0 state_ENA
000210dc l     F .text	00000120 state_RUN
00000000 l    df *ABS*	00000000 comm_messages.c
00000000 l    df *ABS*	00000000 frequency_response.c
00035048 l     O .bss	00000008 power_ref_latched.0
00000000 l    df *ABS*	00000000 sampled_data.c
00000000 l    df *ABS*	00000000 w_sqrt.c
00000000 l    df *ABS*	00000000 e_sqrt.c
00000000 l    df *ABS*	00000000 s_lib_ver.c
00000000 l    df *ABS*	00000000 libgcc2.c
00000000 l    df *ABS*	00000000 lib2-divmod.c
00000000 l    df *ABS*	00000000 lib2-mul.c
00000000 l    df *ABS*	00000000 adddf3.c
00000000 l    df *ABS*	00000000 divdf3.c
00000000 l    df *ABS*	00000000 gedf2.c
00000000 l    df *ABS*	00000000 ledf2.c
00000000 l    df *ABS*	00000000 muldf3.c
00000000 l    df *ABS*	00000000 subdf3.c
00000000 l    df *ABS*	00000000 unorddf2.c
00000000 l    df *ABS*	00000000 floatsidf.c
00000000 l    df *ABS*	00000000 floatunsidf.c
00000000 l    df *ABS*	00000000 libgcc2.c
00000000 l    df *ABS*	00000000 libgcc2.c
00000000 l    df *ABS*	00000000 errno.c
00000000 l    df *ABS*	00000000 impure.c
0003370c l     O .rwdata	00000424 impure_data
00000000 l    df *ABS*	00000000 memset.c
00000000 l    df *ABS*	00000000 printf.c
00000000 l    df *ABS*	00000000 putchar.c
00000000 l    df *ABS*	00000000 puts.c
00000000 l    df *ABS*	00000000 strcmp.c
00000000 l    df *ABS*	00000000 strlen.c
00000000 l    df *ABS*	00000000 vfprintf.c
000277b4 l     F .text	000000c0 __sbprintf
000331f8 l     O .rodata	00000010 blanks.1
000331e8 l     O .rodata	00000010 zeroes.0
00000000 l    df *ABS*	00000000 wsetup.c
00000000 l    df *ABS*	00000000 dtoa.c
000279d8 l     F .text	00000220 quorem
00000000 l    df *ABS*	00000000 fflush.c
00000000 l    df *ABS*	00000000 findfp.c
0002964c l     F .text	00000008 __fp_lock
00029660 l     F .text	00000008 __fp_unlock
00029668 l     F .text	00000168 __sinit.part.0
00000000 l    df *ABS*	00000000 mallocr.c
00000000 l    df *ABS*	00000000 fvwrite.c
00000000 l    df *ABS*	00000000 fwalk.c
00000000 l    df *ABS*	00000000 localeconv.c
00000000 l    df *ABS*	00000000 makebuf.c
00000000 l    df *ABS*	00000000 mallocr.c
00000000 l    df *ABS*	00000000 memchr.c
00000000 l    df *ABS*	00000000 memcpy.c
00000000 l    df *ABS*	00000000 memmove.c
00000000 l    df *ABS*	00000000 mprec.c
000332ac l     O .rodata	0000000c p05.0
00000000 l    df *ABS*	00000000 putc.c
00000000 l    df *ABS*	00000000 mallocr.c
00000000 l    df *ABS*	00000000 sbrkr.c
00000000 l    df *ABS*	00000000 stdio.c
00000000 l    df *ABS*	00000000 vfprintf.c
0002cbf4 l     F .text	000000f4 __sprint_r.part.0
0002e060 l     F .text	000000c0 __sbprintf
000333e0 l     O .rodata	00000010 blanks.1
000333d0 l     O .rodata	00000010 zeroes.0
00000000 l    df *ABS*	00000000 wbuf.c
00000000 l    df *ABS*	00000000 writer.c
00000000 l    df *ABS*	00000000 closer.c
00000000 l    df *ABS*	00000000 assert.c
00000000 l    df *ABS*	00000000 mallocr.c
00000000 l    df *ABS*	00000000 fclose.c
0002e478 l     F .text	000000c0 _fclose_r.part.0
00000000 l    df *ABS*	00000000 fiprintf.c
00000000 l    df *ABS*	00000000 fputwc.c
00000000 l    df *ABS*	00000000 fstatr.c
00000000 l    df *ABS*	00000000 int_errno.c
00000000 l    df *ABS*	00000000 isattyr.c
00000000 l    df *ABS*	00000000 locale.c
00000000 l    df *ABS*	00000000 lseekr.c
00000000 l    df *ABS*	00000000 mbtowc_r.c
00000000 l    df *ABS*	00000000 readr.c
00000000 l    df *ABS*	00000000 vfiprintfr_1.c
00000000 l    df *ABS*	00000000 wcrtomb.c
00000000 l    df *ABS*	00000000 wctomb_r.c
00000000 l    df *ABS*	00000000 abort.c
00000000 l    df *ABS*	00000000 ctype_.c
00000000 l    df *ABS*	00000000 signal.c
00000000 l    df *ABS*	00000000 signalr.c
00000000 l    df *ABS*	00000000 libgcc2.c
00000000 l    df *ABS*	00000000 libgcc2.c
00000000 l    df *ABS*	00000000 eqdf2.c
00000000 l    df *ABS*	00000000 fixdfsi.c
00000000 l    df *ABS*	00000000 alt_close.c
0002feb4 l     F .text	0000003c alt_get_errno
00000000 l    df *ABS*	00000000 alt_dev.c
0002ffcc l     F .text	0000002c alt_dev_null_write
00000000 l    df *ABS*	00000000 alt_errno.c
00000000 l    df *ABS*	00000000 alt_exit.c
00000000 l    df *ABS*	00000000 alt_fstat.c
00030030 l     F .text	0000003c alt_get_errno
00000000 l    df *ABS*	00000000 alt_getpid.c
00000000 l    df *ABS*	00000000 alt_iic.c
00000000 l    df *ABS*	00000000 alt_iic_isr_register.c
00000000 l    df *ABS*	00000000 alt_irq_vars.c
00000000 l    df *ABS*	00000000 alt_isatty.c
000303e0 l     F .text	0000003c alt_get_errno
00000000 l    df *ABS*	00000000 alt_kill.c
000304cc l     F .text	0000003c alt_get_errno
00000000 l    df *ABS*	00000000 alt_load.c
00030634 l     F .text	00000068 alt_load_section
00000000 l    df *ABS*	00000000 alt_lseek.c
00030720 l     F .text	0000003c alt_get_errno
00000000 l    df *ABS*	00000000 alt_main.c
00000000 l    df *ABS*	00000000 alt_malloc_lock.c
00000000 l    df *ABS*	00000000 alt_read.c
00030900 l     F .text	0000003c alt_get_errno
00000000 l    df *ABS*	00000000 alt_release_fd.c
00000000 l    df *ABS*	00000000 alt_sbrk.c
00034368 l     O .rwdata	00000004 heap_end
00000000 l    df *ABS*	00000000 alt_usleep.c
00000000 l    df *ABS*	00000000 alt_write.c
00030b9c l     F .text	0000003c alt_get_errno
00000000 l    df *ABS*	00000000 alt_sys_init.c
00030cdc l     F .text	00000034 alt_dev_reg
0003424c l     O .rwdata	000000c4 uart_0
00000000 l    df *ABS*	00000000 altera_avalon_timer_sc.c
00030dac l     F .text	0000007c alt_avalon_timer_sc_irq
00000000 l    df *ABS*	00000000 altera_avalon_uart_fd.c
00000000 l    df *ABS*	00000000 altera_avalon_uart_init.c
00031068 l     F .text	0000009c altera_avalon_uart_irq
00031104 l     F .text	000000e0 altera_avalon_uart_rxirq
000311e4 l     F .text	00000144 altera_avalon_uart_txirq
00000000 l    df *ABS*	00000000 altera_avalon_uart_read.c
0003137c l     F .text	0000003c alt_get_errno
00000000 l    df *ABS*	00000000 altera_avalon_uart_write.c
000315a0 l     F .text	0000003c alt_get_errno
00000000 l    df *ABS*	00000000 alt_busy_sleep.c
00000000 l    df *ABS*	00000000 alt_dcache_flush_all.c
00000000 l    df *ABS*	00000000 alt_dev_llist_insert.c
00031908 l     F .text	0000003c alt_get_errno
00000000 l    df *ABS*	00000000 alt_do_ctors.c
00000000 l    df *ABS*	00000000 alt_do_dtors.c
00000000 l    df *ABS*	00000000 alt_icache_flush_all.c
00000000 l    df *ABS*	00000000 alt_io_redirect.c
00031b6c l     F .text	000000d4 alt_open_fd
00000000 l    df *ABS*	00000000 alt_open.c
00031cbc l     F .text	0000003c alt_get_errno
00031cf8 l     F .text	000000dc alt_file_locked
00000000 l    df *ABS*	00000000 alt_tick.c
00000000 l    df *ABS*	00000000 altera_nios2_gen2_irq.c
00000000 l    df *ABS*	00000000 alt_find_dev.c
00000000 l    df *ABS*	00000000 alt_find_file.c
00000000 l    df *ABS*	00000000 alt_get_fd.c
00000000 l    df *ABS*	00000000 atexit.c
00000000 l    df *ABS*	00000000 exit.c
00000000 l    df *ABS*	00000000 memcmp.c
00000000 l    df *ABS*	00000000 __atexit.c
00000000 l    df *ABS*	00000000 __call_atexit.c
00035074 g     O .bss	00000004 alt_instruction_exception_handler
00025450 g     F .text	00000018 putchar
0002c200 g     F .text	00000070 _mprec_log10
0002c2ec g     F .text	00000060 __any_on
0002e8d0 g     F .text	00000058 _isatty_r
000332b8 g     O .rodata	00000028 __mprec_tinytens
0003083c g     F .text	0000007c alt_main
00025468 g     F .text	000000cc _puts_r
00035104 g     O .bss	00000100 alt_irq
0002ea1c g     F .text	00000064 _lseek_r
0003500c g     O .bss	00000004 ST_GENERAL
00022730 g     F .text	000000bc sqrt
000207f0 g     F .text	00000574 voltage_response_update
00034374 g       *ABS*	00000000 __flash_rwdata_start
0002fdb4 g     F .text	00000080 .hidden __eqdf2
00035204 g       *ABS*	00000000 __alt_heap_start
00022a58 g     F .text	00000070 .hidden __floatdidf
0002f16c g     F .text	00000060 _kill_r
00025410 g     F .text	00000038 printf
0002eb38 g     F .text	0000006c _wcrtomb_r
0002ecdc g     F .text	00000098 _signal_r
0002cb90 g     F .text	0000005c __sseek
000299b0 g     F .text	00000010 __sinit
000350c4 g     O .bss	0000000c gInterrupt
0002e120 g     F .text	00000148 __swbuf_r
0002e928 g     F .text	00000074 _setlocale_r
000297d0 g     F .text	00000078 __sfmoreglue
000308dc g     F .text	00000024 __malloc_unlock
0002142c g     F .text	00000058 get_menu_handler
00035030 g     O .bss	00000004 g_sec_counter
0002b030 g     F .text	0000012c memmove
0002999c g     F .text	00000014 _cleanup
0002b15c g     F .text	000000a4 _Balloc
000336e8 g     O .rwdata	0000000c hil_params
00023ec4 g     F .text	000000e8 .hidden __gtdf2
000320e0 g     F .text	00000024 altera_nios2_gen2_irq_init
000252e4 g     F .text	0000000c __errno
00020000 g     F .entry	0000000c __reset
0002a418 g     F .text	00000008 __localeconv_l
00035024 g     O .bss	00000004 edge_capture
00035034 g     O .bss	00000004 g_sec_enable
00020494 g     F .text	000000a8 HIL_display_results
000223c4 g     F .text	00000148 frequency_sample
00020020 g       *ABS*	00000000 __flash_exceptions_start
00021ab0 g     F .text	000000d8 decrement_power
0002e870 g     F .text	00000060 _fstat_r
00035040 g     O .bss	00000007 rx_buff
0003505c g     O .bss	00000004 errno
0002cb08 g     F .text	00000008 __seofread
00034324 g     O .rwdata	00000004 gX_MODULO_INTR
0003506c g     O .bss	00000004 alt_argv
0003c310 g       *ABS*	00000000 _gp
00030b6c g     F .text	00000030 usleep
00021484 g     F .text	00000054 display_welcome_message
00030128 g     F .text	00000020 getpid
000340cc g     O .rwdata	00000180 alt_fd_list
00033700 g     O .rwdata	0000000c timer_params
00025448 g     F .text	00000008 _putchar_r
00032104 g     F .text	00000090 alt_find_dev
0002af30 g     F .text	00000100 memcpy
00029654 g     F .text	0000000c _cleanup_r
00025148 g     F .text	000000b8 .hidden __floatsidf
00031c40 g     F .text	0000007c alt_io_redirect
00023fac g     F .text	000000e8 .hidden __ltdf2
000325c4 g       *ABS*	00000000 __DTOR_END__
00025534 g     F .text	00000010 puts
00031ad4 g     F .text	00000098 alt_exception_cause_generated_bad_addr
0002c15c g     F .text	000000a4 __ratio
0002e044 g     F .text	0000001c __vfiprintf_internal
000219a0 g     F .text	00000110 increment_power
000253e0 g     F .text	00000030 _printf_r
00020000 g       *ABS*	00000000 __alt_mem_onchip_memory2_0
00022bbc g     F .text	00000064 .hidden __udivsi3
0003041c g     F .text	000000b0 isatty
0002ed74 g     F .text	000000c4 _raise_r
0002e33c g     F .text	00000064 __assert_func
00033308 g     O .rodata	000000c8 __mprec_tens
00021744 g     F .text	00000048 delay_msec
000216e0 g     F .text	00000064 clear_dma
00035058 g     O .bss	00000004 __malloc_top_pad
0002f1cc g     F .text	00000004 _getpid_r
0003432c g     O .rwdata	00000004 gVar_Enabled
0002a420 g     F .text	0000000c _localeconv_r
0002b5cc g     F .text	000000b0 __i2b
00029e10 g     F .text	000004c8 __sfvwrite_r
0002ee38 g     F .text	000000bc __sigtramp_r
0002ca5c g     F .text	00000058 _sbrk_r
0002ead0 g     F .text	00000064 _read_r
0003435c g     O .rwdata	00000004 alt_max_fd
0002e538 g     F .text	00000070 _fclose_r
000295c8 g     F .text	00000084 fflush
00035054 g     O .bss	00000004 __malloc_max_sbrked_mem
0002178c g     F .text	00000048 clear_terminal
00022ca4 g     F .text	000008f0 .hidden __adddf3
0002bef0 g     F .text	00000108 __b2d
0002f7f0 g     F .text	000005c4 .hidden __umoddi3
0003075c g     F .text	000000e0 lseek
0003503c g     O .bss	00000004 g_mutex_hil
00034338 g     O .rwdata	00000004 __fdlib_version
0003433c g     O .rwdata	00000004 _global_impure_ptr
0002c4f8 g     F .text	00000564 _realloc_r
00035204 g       *ABS*	00000000 __bss_end
000302f8 g     F .text	000000e8 alt_iic_isr_register
00031fd8 g     F .text	00000108 alt_tick
0002f1d0 g     F .text	00000620 .hidden __udivdi3
0002e7d4 g     F .text	00000024 _fputwc_r
000332e0 g     O .rodata	00000028 __mprec_bigtens
0002b380 g     F .text	00000138 __s2b
0002ec68 g     F .text	00000018 abort
00025200 g     F .text	00000090 .hidden __floatunsidf
0002bc10 g     F .text	00000058 __mcmp
00030fbc g     F .text	000000ac altera_avalon_uart_init
000299d0 g     F .text	00000014 __fp_lock_all
000302ac g     F .text	0000004c alt_ic_irq_enabled
00035008 g     O .bss	00000004 g_min_power_reached
00031f34 g     F .text	000000a4 alt_alarm_stop
00035064 g     O .bss	00000004 alt_irq_active
000200fc g     F .exceptions	000000c8 alt_irq_handler
000340a4 g     O .rwdata	00000028 alt_dev_null
000318e8 g     F .text	00000020 alt_dcache_flush_all
0002b4b8 g     F .text	00000064 __hi0bits
0002fe34 g     F .text	00000080 .hidden __fixdfsi
00034374 g       *ABS*	00000000 __ram_rwdata_end
00034354 g     O .rwdata	00000008 alt_dev_list
00030bd8 g     F .text	00000104 write
0002c34c g     F .text	000000cc _putc_r
000350d0 g     O .bss	0000000b rx_buffer
000203d0 g     F .text	0000004c set_HIL_filter
000336e8 g       *ABS*	00000000 __ram_rodata_end
0003006c g     F .text	000000bc fstat
000213d4 g     F .text	00000058 get_version_handler
00030508 g     F .text	0000012c kill
00023fac g     F .text	000000e8 .hidden __ledf2
0002b940 g     F .text	00000148 __pow5mult
0002cd00 g     F .text	00001344 ___vfiprintf_internal_r
00022c20 g     F .text	0000005c .hidden __umodsi3
00021218 g     F .text	00000080 substring
00035204 g       *ABS*	00000000 end
000315dc g     F .text	000001b4 altera_avalon_uart_write
0003501c g     O .bss	00000004 g_hil_mode
000201c4 g     F .exceptions	00000060 alt_instruction_exception_entry
000325c4 g       *ABS*	00000000 __CTOR_LIST__
00040000 g       *ABS*	00000000 __alt_stack_pointer
00034318 g     O .rwdata	00000004 hil_amplitude
00030e28 g     F .text	00000084 alt_avalon_timer_sc_init
00030f0c g     F .text	00000060 altera_avalon_uart_write_fd
00025290 g     F .text	00000054 .hidden __clzsi2
00030f6c g     F .text	00000050 altera_avalon_uart_close_fd
0002228c g     F .text	00000138 voltage_sample
00035080 g     O .bss	00000024 gInput
000299c0 g     F .text	00000004 __sfp_lock_acquire
0002ae60 g     F .text	000000d0 memchr
00025694 g     F .text	00002104 ___vfprintf_internal_r
00029b14 g     F .text	000002fc _free_r
00033544 g     O .rodata	00000180 _ctype_b
0002e99c g     F .text	0000000c __locale_mb_cur_max
00034328 g     O .rwdata	00000004 gY_MODULO_INTR
000324a4 g     F .text	00000120 __call_exitprocs
00034344 g     O .rwdata	00000004 __malloc_sbrk_base
00020224 g     F .text	0000003c _start
00035078 g     O .bss	00000004 _alt_tick_rate
0002ba88 g     F .text	00000188 __lshift
0003507c g     O .bss	00000004 _alt_nticks
0002efb0 g     F .text	000000a0 signal
0003093c g     F .text	00000108 read
00030d4c g     F .text	00000060 alt_sys_init
00032414 g     F .text	00000090 __register_exitproc
00021950 g     F .text	00000028 enable_timer_sec
0002b67c g     F .text	000002c4 __multiply
00022c7c g     F .text	00000028 .hidden __mulsi3
000336e8 g       *ABS*	00000000 __ram_rwdata_start
000325c4 g       *ABS*	00000000 __ram_rodata_start
000350dc g     O .bss	00000028 __malloc_current_mallinfo
0002bff8 g     F .text	00000164 __d2b
0003229c g     F .text	000000b8 alt_get_fd
00020644 g     F .text	00000038 set_hardware_timer
00031790 g     F .text	00000158 alt_busy_sleep
0002e2e4 g     F .text	00000058 _close_r
000226a4 g     F .text	00000060 set_timer_filter
0003239c g     F .text	00000078 memcmp
00035204 g       *ABS*	00000000 __alt_stack_base
00027874 g     F .text	00000164 __swsetup_r
00035038 g     O .bss	00000004 g_20msec
00023594 g     F .text	00000930 .hidden __divdf3
00029848 g     F .text	00000154 __sfp
0002c270 g     F .text	0000007c __copybits
00033b30 g     O .rwdata	00000408 __malloc_av_
000299cc g     F .text	00000004 __sinit_lock_release
00035004 g     O .bss	00000004 g_max_power_reached
00024094 g     F .text	000007ac .hidden __muldf3
0002cab4 g     F .text	00000054 __sread
00021398 g     F .text	0000003c uart_print_buffer
00032194 g     F .text	00000108 alt_find_file
00031944 g     F .text	000000a8 alt_dev_llist_insert
000308b8 g     F .text	00000024 __malloc_lock
00030ab4 g     F .text	000000b8 sbrk
00029568 g     F .text	00000060 _fflush_r
0002e3b4 g     F .text	000000c4 _calloc_r
00035020 g     O .bss	00000004 cmd_buffer
00035000 g       *ABS*	00000000 __bss_start
000252f0 g     F .text	000000f0 memset
000211fc g     F .text	0000001c main
00035070 g     O .bss	00000004 alt_envp
00035050 g     O .bss	00000004 __malloc_max_total_mem
00035014 g     O .bss	00000004 g_main_count
0002e268 g     F .text	00000018 __swbuf
00020260 g     F .text	0000002c select_HIL_inputs
0002cbec g     F .text	00000008 __sclose
00040000 g       *ABS*	00000000 __alt_heap_limit
0002e5a8 g     F .text	00000070 fclose
00027bf8 g     F .text	00001748 _dtoa_r
0002a680 g     F .text	000007e0 _malloc_r
0002ec38 g     F .text	00000030 __ascii_wctomb
00034360 g     O .rwdata	00000004 alt_errno
0002e618 g     F .text	00000020 _fiprintf_r
0002f050 g     F .text	00000060 _init_signal
0002a2d8 g     F .text	00000098 _fwalk
0002041c g     F .text	00000078 HIL_test_frequency
0002028c g     F .text	00000070 set_HIL_amplitude
0002ea80 g     F .text	0000000c _mbtowc_r
0002c418 g     F .text	000000e0 putc
00022ac8 g     F .text	00000080 .hidden __divsi3
000299f8 g     F .text	0000011c _malloc_trim_r
000325c4 g       *ABS*	00000000 __CTOR_END__
00022644 g     F .text	00000060 set_squares_filter
00025544 g     F .text	000000b8 strcmp
000325c4 g       *ABS*	00000000 __flash_rodata_start
000325c4 g       *ABS*	00000000 __DTOR_LIST__
000350a4 g     O .bss	00000020 gCommand
00035028 g     O .bss	00000004 gToggle
0002fdb4 g     F .text	00000080 .hidden __nedf2
00030d10 g     F .text	0000003c alt_irq_init
00035000 g     O .bss	00000004 gMode
00030a44 g     F .text	00000070 alt_release_fd
000330a0 g     O .rodata	00000100 .hidden __clz_tab
00035060 g     O .bss	00000004 _PathLocale
00032354 g     F .text	00000014 atexit
0002e280 g     F .text	00000064 _write_r
0002e9a8 g     F .text	00000074 setlocale
00034330 g     O .rwdata	00000004 gWatt_Enabled
00034340 g     O .rwdata	00000004 _impure_ptr
00035068 g     O .bss	00000004 alt_argc
00029340 g     F .text	00000228 __sflush_r
00031a50 g     F .text	00000064 _do_dtors
0002250c g     F .text	00000138 sample_power_values
000336f4 g     O .rwdata	0000000c squares_params
000214d8 g     F .text	000000fc display_Version
00020020 g       .exceptions	00000000 alt_irq_entry
0002ea8c g     F .text	00000044 __ascii_mbtowc
0002be94 g     F .text	0000005c __ulp
000299e4 g     F .text	00000014 __fp_unlock_all
0003434c g     O .rwdata	00000008 alt_fs_list
00020020 g       *ABS*	00000000 __ram_exceptions_start
00034320 g     O .rwdata	00000004 INTERRUPT_TICS_PER_SAMPLE
0002a42c g     F .text	0000000c localeconv
000227ec g     F .text	0000026c __ieee754_sqrt
0002a5e8 g     F .text	00000098 __swhatbuf_r
00030148 g     F .text	00000050 alt_ic_isr_register
000217d4 g     F .text	000000dc print_mode
00034374 g       *ABS*	00000000 _edata
000212f0 g     F .text	000000a8 read_data_stack
00030eac g     F .text	00000060 altera_avalon_uart_read_fd
00035204 g       *ABS*	00000000 _end
0002e670 g     F .text	00000164 __fputwc
00020224 g       *ABS*	00000000 __ram_exceptions_end
000215d4 g     F .text	0000010c display_Menu
0003431c g     O .rwdata	00000004 hil_timer_cnts
00034334 g     O .rwdata	00000004 gWatt_Multi_Enabled
0002053c g     F .text	000000d0 put_reset_handler
00030220 g     F .text	0000008c alt_ic_irq_disable
0002cb10 g     F .text	00000080 __swrite
00034348 g     O .rwdata	00000004 __malloc_trim_threshold
00032368 g     F .text	00000034 exit
0002e638 g     F .text	00000038 fiprintf
0002eb34 g     F .text	00000004 _vfiprintf_r
00035010 g     O .bss	00000004 gAmp
0002a370 g     F .text	000000a8 _fwalk_reent
0002bc68 g     F .text	0000022c __mdiff
0003502c g     O .bss	00000004 timer_sec
00022b48 g     F .text	00000074 .hidden __modsi3
00040000 g       *ABS*	00000000 __alt_data_end
00020020 g     F .exceptions	00000000 alt_exception
000299c4 g     F .text	00000004 __sfp_lock_release
00021b88 g     F .text	00000704 frequency_response_update
00021978 g     F .text	00000028 reset_timer_sec
00033440 g     O .rodata	00000101 _ctype_
000250f4 g     F .text	00000054 .hidden __unorddf2
00031328 g     F .text	00000054 altera_avalon_uart_close
0002fff8 g     F .text	00000038 _exit
00022704 g     F .text	0000002c disable_fpga_filter
0002a438 g     F .text	000001b0 __smakebuf_r
000255fc g     F .text	00000098 strlen
0002ec80 g     F .text	0000005c _init_signal_r
00031dd4 g     F .text	00000160 open
00023ec4 g     F .text	000000e8 .hidden __gedf2
00035018 g     O .bss	00000004 g_hil_finish
0002e3a0 g     F .text	00000014 __assert
0002060c g     F .text	00000038 init_IRQ_data_structures
00021298 g     F .text	00000058 clear_terminal_handler
0002cce8 g     F .text	00000018 __sprint_r
00031ab4 g     F .text	00000020 alt_icache_flush_all
00034364 g     O .rwdata	00000004 alt_priority_mask
00030198 g     F .text	00000088 alt_ic_irq_enable
00027798 g     F .text	0000001c __vfprintf_internal
000313b8 g     F .text	000001e8 altera_avalon_uart_read
0002ec2c g     F .text	0000000c _wctomb_r
00024840 g     F .text	000008b4 .hidden __subdf3
0002b51c g     F .text	000000b0 __lo0bits
0003436c g     O .rwdata	00000008 alt_alarm_list
000319ec g     F .text	00000064 _do_ctors
0002f0b0 g     F .text	000000bc __sigtramp
0002eba4 g     F .text	00000088 wcrtomb
0002fef0 g     F .text	000000dc close
00033f38 g     O .rwdata	0000016c __global_locale
000202fc g     F .text	000000d4 set_HIL_timer_cnts
0003069c g     F .text	00000084 alt_load
000218b0 g     F .text	000000a0 run_simple_test_sequence
0002e7f8 g     F .text	00000078 fputwc
0002eef4 g     F .text	000000bc raise
00034314 g     O .rwdata	00000004 g_hil_pivot
000299c8 g     F .text	00000004 __sinit_lock_acquire
0002b224 g     F .text	0000015c __multadd
0002b200 g     F .text	00000024 _Bfree



Disassembly of section .entry:

00020000 <__reset>:
 * Jump to the _start entry point in the .text section if reset code
 * is allowed or if optimizing for RTL simulation.
 */
#if defined(ALT_ALLOW_CODE_AT_RESET) || defined(ALT_SIM_OPTIMIZE)
    /* Jump to the _start entry point in the .text section. */
    movhi r1, %hi(_start)
   20000:	004000b4 	movhi	at,2
    ori r1, r1, %lo(_start)
   20004:	08408914 	ori	at,at,548
    jmp r1
   20008:	0800683a 	jmp	at
	...

Disassembly of section .exceptions:

00020020 <alt_exception>:

#else /* ALT_EXCEPTION_STACK disabled */
        /* 
         * Reserve space on normal stack for registers about to be pushed.
         */
        addi  sp, sp, -76
   20020:	deffed04 	addi	sp,sp,-76
         * documentation for details).
         *
         * Leave a gap in the stack frame at 4(sp) for the muldiv handler to
         * store zero into.
         */
        stw   ra,  0(sp)
   20024:	dfc00015 	stw	ra,0(sp)
        stw   r1,   8(sp)
   20028:	d8400215 	stw	at,8(sp)
        stw   r2,  12(sp)
   2002c:	d8800315 	stw	r2,12(sp)
        stw   r3,  16(sp)
   20030:	d8c00415 	stw	r3,16(sp)
        stw   r4,  20(sp)
   20034:	d9000515 	stw	r4,20(sp)
        stw   r5,  24(sp)
   20038:	d9400615 	stw	r5,24(sp)
        stw   r6,  28(sp)
   2003c:	d9800715 	stw	r6,28(sp)
        stw   r7,  32(sp)
   20040:	d9c00815 	stw	r7,32(sp)
        rdctl r5, estatus   /* Read early to avoid usage stall */
   20044:	000b307a 	rdctl	r5,estatus
        stw   r8,  36(sp)
   20048:	da000915 	stw	r8,36(sp)
        stw   r9,  40(sp)
   2004c:	da400a15 	stw	r9,40(sp)
        stw   r10, 44(sp)
   20050:	da800b15 	stw	r10,44(sp)
        stw   r11, 48(sp)
   20054:	dac00c15 	stw	r11,48(sp)
        stw   r12, 52(sp)
   20058:	db000d15 	stw	r12,52(sp)
        stw   r13, 56(sp)
   2005c:	db400e15 	stw	r13,56(sp)
        stw   r14, 60(sp)
   20060:	db800f15 	stw	r14,60(sp)
        stw   r15, 64(sp)
   20064:	dbc01015 	stw	r15,64(sp)
        /*
         * ea-4 contains the address of the instruction being executed
         * when the exception occured. For interrupt exceptions, we will
         * will be re-issue the isntruction. Store it in 72(sp)
         */
        stw   r5,  68(sp)  /* estatus */
   20068:	d9401115 	stw	r5,68(sp)
        addi  r15, ea, -4  /* instruction that caused exception */
   2006c:	ebffff04 	addi	r15,ea,-4
        stw   r15,  72(sp)
   20070:	dbc01215 	stw	r15,72(sp)
#else
        /*
         * Test to see if the exception was a software exception or caused 
         * by an external interrupt, and vector accordingly.
         */
        rdctl r4, ipending
   20074:	0009313a 	rdctl	r4,ipending
        andi  r2, r5, 1
   20078:	2880004c 	andi	r2,r5,1
        beq   r2, zero, .Lnot_irq
   2007c:	10000326 	beq	r2,zero,2008c <alt_exception+0x6c>
        beq   r4, zero, .Lnot_irq
   20080:	20000226 	beq	r4,zero,2008c <alt_exception+0x6c>
        /*
         * Now that all necessary registers have been preserved, call 
         * alt_irq_handler() to process the interrupts.
         */

        call alt_irq_handler
   20084:	00200fc0 	call	200fc <alt_irq_handler>

        .section .exceptions.irqreturn, "xa"

        br    .Lexception_exit
   20088:	00000706 	br	200a8 <alt_exception+0x88>
         * upon completion, so we write ea (address of instruction *after*
         * the one where the exception occured) into 72(sp). The actual
         * instruction that caused the exception is written in r2, which these
         * handlers will utilize.
         */
        stw ea, 72(sp) /* EA is PC+4 so will skip over instruction causing exception */
   2008c:	df401215 	stw	ea,72(sp)
.Lunknown_16bit:
        addi.n r4, r4, 2 /* Need PC+2 to skip over instruction causing exception */
        stw r4, 72(sp)

#else /* CDX is not Enabled and all instructions are 32bits */
        ldw r2, -4(ea) /* Instruction value that caused exception */
   20090:	e8bfff17 	ldw	r2,-4(ea)
         * debugger is present) or go into an infinite loop since the
         * handling behavior is undefined; in that case we will not return here.
         */

        /* Load exception-causing address as first argument (r4) */
        addi   r4, ea, -4
   20094:	e93fff04 	addi	r4,ea,-4

        /* Call the instruction-exception entry */
        call   alt_instruction_exception_entry
   20098:	00201c40 	call	201c4 <alt_instruction_exception_entry>
         * instruction
         *
         * Return code was 0: Skip. The instruction after the exception is
         * already stored in 72(sp).
         */
        bne   r2, r0, .Lexception_exit
   2009c:	1000021e 	bne	r2,zero,200a8 <alt_exception+0x88>

        /*
         * Otherwise, modify 72(sp) to re-issue the instruction that caused the
         * exception.
         */
        addi  r15, ea, -4  /* instruction that caused exception */
   200a0:	ebffff04 	addi	r15,ea,-4
        stw   r15,  72(sp)
   200a4:	dbc01215 	stw	r15,72(sp)
        /* 
         * Restore the saved registers, so that all general purpose registers 
         * have been restored to their state at the time the interrupt occured.
         */

        ldw   r5,  68(sp)
   200a8:	d9401117 	ldw	r5,68(sp)
        ldw   ea,  72(sp)  /* This becomes the PC once eret is executed */
   200ac:	df401217 	ldw	ea,72(sp)
        ldw   ra,   0(sp)
   200b0:	dfc00017 	ldw	ra,0(sp)

        wrctl estatus, r5
   200b4:	2801707a 	wrctl	estatus,r5

        ldw   r1,   8(sp)
   200b8:	d8400217 	ldw	at,8(sp)
        ldw   r2,  12(sp)
   200bc:	d8800317 	ldw	r2,12(sp)
        ldw   r3,  16(sp)
   200c0:	d8c00417 	ldw	r3,16(sp)
        ldw   r4,  20(sp)
   200c4:	d9000517 	ldw	r4,20(sp)
        ldw   r5,  24(sp)
   200c8:	d9400617 	ldw	r5,24(sp)
        ldw   r6,  28(sp)
   200cc:	d9800717 	ldw	r6,28(sp)
        ldw   r7,  32(sp)
   200d0:	d9c00817 	ldw	r7,32(sp)

#if defined(ALT_EXCEPTION_STACK) && defined(ALT_STACK_CHECK)
        ldw   et, %gprel(alt_exception_old_stack_limit)(gp)
#endif

        ldw   r8,  36(sp)
   200d4:	da000917 	ldw	r8,36(sp)
        ldw   r9,  40(sp)
   200d8:	da400a17 	ldw	r9,40(sp)
        ldw   r10, 44(sp)
   200dc:	da800b17 	ldw	r10,44(sp)
        ldw   r11, 48(sp)
   200e0:	dac00c17 	ldw	r11,48(sp)
        ldw   r12, 52(sp)
   200e4:	db000d17 	ldw	r12,52(sp)
        ldw   r13, 56(sp)
   200e8:	db400e17 	ldw	r13,56(sp)
        ldw   r14, 60(sp)
   200ec:	db800f17 	ldw	r14,60(sp)
        ldw   r15, 64(sp)
   200f0:	dbc01017 	ldw	r15,64(sp)
        stw   et, %gprel(alt_stack_limit_value)(gp)
        stw   zero, %gprel(alt_exception_old_stack_limit)(gp)
#endif /* ALT_STACK_CHECK */
        ldw   sp,  76(sp)
#else /* ALT_EXCEPTION_STACK disabled */
        addi  sp, sp, 76
   200f4:	dec01304 	addi	sp,sp,76

        /*
         * Return to the interrupted instruction.
         */

        eret
   200f8:	ef80083a 	eret

000200fc <alt_irq_handler>:
 * instruction is present if the macro ALT_CI_INTERRUPT_VECTOR defined.
 */

void alt_irq_handler (void) __attribute__ ((section (".exceptions")));
void alt_irq_handler (void)
{
   200fc:	defff904 	addi	sp,sp,-28
   20100:	dfc00615 	stw	ra,24(sp)
   20104:	df000515 	stw	fp,20(sp)
   20108:	df000504 	addi	fp,sp,20
  
  /*
   * Notify the operating system that we are at interrupt level.
   */ 
  
  ALT_OS_INT_ENTER();
   2010c:	0001883a 	nop
#ifndef NIOS2_EIC_PRESENT
static ALT_INLINE alt_u32 ALT_ALWAYS_INLINE alt_irq_pending (void)
{
  alt_u32 active;

  NIOS2_READ_IPENDING (active);
   20110:	0005313a 	rdctl	r2,ipending
   20114:	e0bffc15 	stw	r2,-16(fp)

  return active;
   20118:	e0bffc17 	ldw	r2,-16(fp)
   * Consider the case where the high priority interupt is asserted during
   * the interrupt entry sequence for a lower priority interrupt to see why
   * this is the case.
   */

  active = alt_irq_pending ();
   2011c:	e0bfff15 	stw	r2,-4(fp)

  do
  {
    i = 0;
   20120:	e03ffd15 	stw	zero,-12(fp)
    mask = 1;
   20124:	00800044 	movi	r2,1
   20128:	e0bffe15 	stw	r2,-8(fp)
     * called to clear the interrupt condition.
     */

    do
    {
      if (active & mask)
   2012c:	e0ffff17 	ldw	r3,-4(fp)
   20130:	e0bffe17 	ldw	r2,-8(fp)
   20134:	1884703a 	and	r2,r3,r2
   20138:	10001126 	beq	r2,zero,20180 <alt_irq_handler+0x84>
      { 
#ifdef ALT_ENHANCED_INTERRUPT_API_PRESENT
        alt_irq[i].handler(alt_irq[i].context); 
   2013c:	e0bffd17 	ldw	r2,-12(fp)
   20140:	100690fa 	slli	r3,r2,3
   20144:	008000f4 	movhi	r2,3
   20148:	1885883a 	add	r2,r3,r2
   2014c:	10d44117 	ldw	r3,20740(r2)
   20150:	e0bffd17 	ldw	r2,-12(fp)
   20154:	100890fa 	slli	r4,r2,3
   20158:	008000f4 	movhi	r2,3
   2015c:	2085883a 	add	r2,r4,r2
   20160:	10944217 	ldw	r2,20744(r2)
   20164:	1009883a 	mov	r4,r2
   20168:	183ee83a 	callr	r3
#else
        alt_irq[i].handler(alt_irq[i].context, i); 
#endif
        break;
   2016c:	0001883a 	nop
  NIOS2_READ_IPENDING (active);
   20170:	0005313a 	rdctl	r2,ipending
   20174:	e0bffb15 	stw	r2,-20(fp)
  return active;
   20178:	e0bffb17 	ldw	r2,-20(fp)
   2017c:	00000706 	br	2019c <alt_irq_handler+0xa0>
      }
      mask <<= 1;
   20180:	e0bffe17 	ldw	r2,-8(fp)
   20184:	1085883a 	add	r2,r2,r2
   20188:	e0bffe15 	stw	r2,-8(fp)
      i++;
   2018c:	e0bffd17 	ldw	r2,-12(fp)
   20190:	10800044 	addi	r2,r2,1
   20194:	e0bffd15 	stw	r2,-12(fp)
      if (active & mask)
   20198:	003fe406 	br	2012c <alt_irq_handler+0x30>

    } while (1);

    active = alt_irq_pending ();
   2019c:	e0bfff15 	stw	r2,-4(fp)
    
  } while (active);
   201a0:	e0bfff17 	ldw	r2,-4(fp)
   201a4:	103fde1e 	bne	r2,zero,20120 <alt_irq_handler+0x24>

  /*
   * Notify the operating system that interrupt processing is complete.
   */ 

  ALT_OS_INT_EXIT();
   201a8:	0001883a 	nop
}
   201ac:	0001883a 	nop
   201b0:	e037883a 	mov	sp,fp
   201b4:	dfc00117 	ldw	ra,4(sp)
   201b8:	df000017 	ldw	fp,0(sp)
   201bc:	dec00204 	addi	sp,sp,8
   201c0:	f800283a 	ret

000201c4 <alt_instruction_exception_entry>:
 * that handler if it has been registered. Absent a handler, it will
 * break break or hang as discussed below.
 */
int 
alt_instruction_exception_entry (alt_u32 exception_pc)
{
   201c4:	defffb04 	addi	sp,sp,-20
   201c8:	dfc00415 	stw	ra,16(sp)
   201cc:	df000315 	stw	fp,12(sp)
   201d0:	df000304 	addi	fp,sp,12
   201d4:	e13ffd15 	stw	r4,-12(fp)
  cause = ( (cause & NIOS2_EXCEPTION_REG_CAUSE_MASK) >>
              NIOS2_EXCEPTION_REG_CAUSE_OFST );

  NIOS2_READ_BADADDR(badaddr);
#else
  cause = NIOS2_EXCEPTION_CAUSE_NOT_PRESENT;
   201d8:	00bfffc4 	movi	r2,-1
   201dc:	e0bfff15 	stw	r2,-4(fp)
  badaddr = 0;
   201e0:	e03ffe15 	stw	zero,-8(fp)
#endif /* NIOS2_HAS_EXTRA_EXCEPTION_INFO */

  if(alt_instruction_exception_handler) {
   201e4:	d0a35917 	ldw	r2,-29340(gp)
   201e8:	10000726 	beq	r2,zero,20208 <alt_instruction_exception_entry+0x44>
     * Call handler. Its return value indicates whether the exception-causing
     * instruction should be re-issued. The code that called us,
     * alt_eceptions_entry.S, will look at this value and adjust the ea
     * register as necessary
     */
    return alt_instruction_exception_handler(cause, exception_pc, badaddr);
   201ec:	d0a35917 	ldw	r2,-29340(gp)
   201f0:	e0ffff17 	ldw	r3,-4(fp)
   201f4:	e1bffe17 	ldw	r6,-8(fp)
   201f8:	e17ffd17 	ldw	r5,-12(fp)
   201fc:	1809883a 	mov	r4,r3
   20200:	103ee83a 	callr	r2
   20204:	00000206 	br	20210 <alt_instruction_exception_entry+0x4c>
   *    (a peripheral which negates its interrupt output before its
   *    interrupt handler has been executed will cause spurious interrupts)
   */
  else {
#ifdef NIOS2_HAS_DEBUG_STUB
    NIOS2_BREAK();
   20208:	003da03a 	break	0
      ;
#endif /* NIOS2_HAS_DEBUG_STUB */
  }

  /* We should not get here. Remove compiler warning. */
  return NIOS2_EXCEPTION_RETURN_REISSUE_INST;
   2020c:	0005883a 	mov	r2,zero
}
   20210:	e037883a 	mov	sp,fp
   20214:	dfc00117 	ldw	ra,4(sp)
   20218:	df000017 	ldw	fp,0(sp)
   2021c:	dec00204 	addi	sp,sp,8
   20220:	f800283a 	ret

Disassembly of section .text:

00020224 <_start>:

    /*
     * Now that the caches are initialized, set up the stack pointer and global pointer.
     * The values provided by the linker are assumed to be correctly aligned.
     */
    movhi sp, %hi(__alt_stack_pointer)
   20224:	06c00134 	movhi	sp,4
    ori sp, sp, %lo(__alt_stack_pointer)
   20228:	dec00014 	ori	sp,sp,0
    movhi gp, %hi(_gp)
   2022c:	068000f4 	movhi	gp,3
    ori gp, gp, %lo(_gp)
   20230:	d6b0c414 	ori	gp,gp,49936
 */
#ifndef ALT_SIM_OPTIMIZE
    /* Log that the BSS is about to be cleared. */
    ALT_LOG_PUTS(alt_log_msg_bss)

    movhi r2, %hi(__bss_start)
   20234:	008000f4 	movhi	r2,3
    ori r2, r2, %lo(__bss_start)
   20238:	10940014 	ori	r2,r2,20480

    movhi r3, %hi(__bss_end)
   2023c:	00c000f4 	movhi	r3,3
    ori r3, r3, %lo(__bss_end)
   20240:	18d48114 	ori	r3,r3,20996

    beq r2, r3, 1f
   20244:	10c00326 	beq	r2,r3,20254 <_start+0x30>

0:
    stw zero, (r2)
   20248:	10000015 	stw	zero,0(r2)
    addi r2, r2, 4
   2024c:	10800104 	addi	r2,r2,4
    bltu r2, r3, 0b
   20250:	10fffd36 	bltu	r2,r3,20248 <_start+0x24>
     * section aren't defined until alt_load() has been called).
     */
    mov   et, zero
#endif

    call alt_load
   20254:	003069c0 	call	3069c <alt_load>

    /* Log that alt_main is about to be called. */
    ALT_LOG_PUTS(alt_log_msg_alt_main)

    /* Call the C entry point. It should never return. */
    call alt_main
   20258:	003083c0 	call	3083c <alt_main>

0002025c <alt_after_alt_main>:

    /* Wait in infinite loop in case alt_main does return. */
alt_after_alt_main:
    br alt_after_alt_main
   2025c:	003fff06 	br	2025c <alt_after_alt_main>

00020260 <select_HIL_inputs>:
#include "Hardware_In_Loop.h"


extern int hil_timer_cnts;

void select_HIL_inputs(){
   20260:	deffff04 	addi	sp,sp,-4
   20264:	df000015 	stw	fp,0(sp)
   20268:	d839883a 	mov	fp,sp
	IOWR_ALTERA_AVALON_PIO_DATA(O_REG32_7_BASE, 0x1);
   2026c:	00c00044 	movi	r3,1
   20270:	00800134 	movhi	r2,4
   20274:	10c51435 	stwio	r3,5200(r2)
}
   20278:	0001883a 	nop
   2027c:	e037883a 	mov	sp,fp
   20280:	df000017 	ldw	fp,0(sp)
   20284:	dec00104 	addi	sp,sp,4
   20288:	f800283a 	ret

0002028c <set_HIL_amplitude>:


void set_HIL_amplitude (int amplitude, int display_msg){
   2028c:	defffc04 	addi	sp,sp,-16
   20290:	dfc00315 	stw	ra,12(sp)
   20294:	df000215 	stw	fp,8(sp)
   20298:	df000204 	addi	fp,sp,8
   2029c:	e13fff15 	stw	r4,-4(fp)
   202a0:	e17ffe15 	stw	r5,-8(fp)
	IOWR_ALTERA_AVALON_PIO_DATA(O_REG32_0_BASE, amplitude);
   202a4:	e0ffff17 	ldw	r3,-4(fp)
   202a8:	00800134 	movhi	r2,4
   202ac:	10c53035 	stwio	r3,5312(r2)
	if (display_msg){
   202b0:	e0bffe17 	ldw	r2,-8(fp)
   202b4:	10000b26 	beq	r2,zero,202e4 <set_HIL_amplitude+0x58>
	printf("**** The HIL amplitude (in Counts) = %d\r\n", amplitude);
   202b8:	e17fff17 	ldw	r5,-4(fp)
   202bc:	010000f4 	movhi	r4,3
   202c0:	21097104 	addi	r4,r4,9668
   202c4:	00254100 	call	25410 <printf>
	printf("**** The HIL Counts per Volt = %f \r\n", CNTS_PER_VOLT);
   202c8:	000b883a 	mov	r5,zero
   202cc:	01900034 	movhi	r6,16384
   202d0:	010000f4 	movhi	r4,3
   202d4:	21097c04 	addi	r4,r4,9712
   202d8:	00254100 	call	25410 <printf>

	delay_msec(1);
   202dc:	01000044 	movi	r4,1
   202e0:	00217440 	call	21744 <delay_msec>
}
}
   202e4:	0001883a 	nop
   202e8:	e037883a 	mov	sp,fp
   202ec:	dfc00117 	ldw	ra,4(sp)
   202f0:	df000017 	ldw	fp,0(sp)
   202f4:	dec00204 	addi	sp,sp,8
   202f8:	f800283a 	ret

000202fc <set_HIL_timer_cnts>:
void set_HIL_timer_cnts(int timer_cnts, int display_msg){
   202fc:	defffa04 	addi	sp,sp,-24
   20300:	dfc00515 	stw	ra,20(sp)
   20304:	df000415 	stw	fp,16(sp)
   20308:	df000404 	addi	fp,sp,16
   2030c:	e13ffd15 	stw	r4,-12(fp)
   20310:	e17ffc15 	stw	r5,-16(fp)
	IOWR_ALTERA_AVALON_PIO_DATA(O_REG32_10_BASE, timer_cnts);
   20314:	e0fffd17 	ldw	r3,-12(fp)
   20318:	00800134 	movhi	r2,4
   2031c:	10c50835 	stwio	r3,5152(r2)
	if (display_msg){
   20320:	e0bffc17 	ldw	r2,-16(fp)
   20324:	10002226 	beq	r2,zero,203b0 <set_HIL_timer_cnts+0xb4>
	printf("**** The sinewave HIL period is set to ");
   20328:	010000f4 	movhi	r4,3
   2032c:	21098604 	addi	r4,r4,9752
   20330:	00254100 	call	25410 <printf>
	double timer_period = 1/(1024*timer_cnts*FPGA_MCLK);
   20334:	e0bffd17 	ldw	r2,-12(fp)
   20338:	100492ba 	slli	r2,r2,10
   2033c:	1009883a 	mov	r4,r2
   20340:	00251480 	call	25148 <__floatsidf>
   20344:	1011883a 	mov	r8,r2
   20348:	1813883a 	mov	r9,r3
   2034c:	01b88c74 	movhi	r6,57905
   20350:	31a30e84 	addi	r6,r6,-29638
   20354:	01cf9574 	movhi	r7,15957
   20358:	39de6384 	addi	r7,r7,31118
   2035c:	4009883a 	mov	r4,r8
   20360:	480b883a 	mov	r5,r9
   20364:	00240940 	call	24094 <__muldf3>
   20368:	1009883a 	mov	r4,r2
   2036c:	180b883a 	mov	r5,r3
   20370:	2005883a 	mov	r2,r4
   20374:	2807883a 	mov	r3,r5
   20378:	100d883a 	mov	r6,r2
   2037c:	180f883a 	mov	r7,r3
   20380:	0009883a 	mov	r4,zero
   20384:	014ffc34 	movhi	r5,16368
   20388:	00235940 	call	23594 <__divdf3>
   2038c:	1009883a 	mov	r4,r2
   20390:	180b883a 	mov	r5,r3
   20394:	e13ffe15 	stw	r4,-8(fp)
   20398:	e17fff15 	stw	r5,-4(fp)
	printf("%f Hertz.\r\n", timer_period);
   2039c:	e17ffe17 	ldw	r5,-8(fp)
   203a0:	e1bfff17 	ldw	r6,-4(fp)
   203a4:	010000f4 	movhi	r4,3
   203a8:	21099004 	addi	r4,r4,9792
   203ac:	00254100 	call	25410 <printf>
	}
	delay_msec(1);
   203b0:	01000044 	movi	r4,1
   203b4:	00217440 	call	21744 <delay_msec>
}
   203b8:	0001883a 	nop
   203bc:	e037883a 	mov	sp,fp
   203c0:	dfc00117 	ldw	ra,4(sp)
   203c4:	df000017 	ldw	fp,0(sp)
   203c8:	dec00204 	addi	sp,sp,8
   203cc:	f800283a 	ret

000203d0 <set_HIL_filter>:

void set_HIL_filter(filter_t* filter_params){
   203d0:	defffe04 	addi	sp,sp,-8
   203d4:	df000115 	stw	fp,4(sp)
   203d8:	df000104 	addi	fp,sp,4
   203dc:	e13fff15 	stw	r4,-4(fp)
	IOWR_ALTERA_AVALON_PIO_DATA(O_REG32_12_BASE, filter_params->alpha);
   203e0:	e0bfff17 	ldw	r2,-4(fp)
   203e4:	10800017 	ldw	r2,0(r2)
   203e8:	1007883a 	mov	r3,r2
   203ec:	00800134 	movhi	r2,4
   203f0:	10c4e435 	stwio	r3,5008(r2)
	IOWR_ALTERA_AVALON_PIO_DATA(O_REG32_13_BASE, filter_params->beta);
   203f4:	e0bfff17 	ldw	r2,-4(fp)
   203f8:	10800117 	ldw	r2,4(r2)
   203fc:	1007883a 	mov	r3,r2
   20400:	00800134 	movhi	r2,4
   20404:	10c4e835 	stwio	r3,5024(r2)
}
   20408:	0001883a 	nop
   2040c:	e037883a 	mov	sp,fp
   20410:	df000017 	ldw	fp,0(sp)
   20414:	dec00104 	addi	sp,sp,4
   20418:	f800283a 	ret

0002041c <HIL_test_frequency>:
/// 1. TIMER_CNTS_50HZ  - default timer counts 50 Hz
/// 2. HIL_INDEX_START  - main loop index to start HIL
/// 3. TIMER_CNTS_DELTA - change of timer counts (changes frequency)
///=================================================

int HIL_test_frequency(int index, int increase_mode) {
   2041c:	defffc04 	addi	sp,sp,-16
   20420:	dfc00315 	stw	ra,12(sp)
   20424:	df000215 	stw	fp,8(sp)
   20428:	df000204 	addi	fp,sp,8
   2042c:	e13fff15 	stw	r4,-4(fp)
   20430:	e17ffe15 	stw	r5,-8(fp)

	if (index > HIL_START_INDEX) {
   20434:	e0bfff17 	ldw	r2,-4(fp)
   20438:	10800190 	cmplti	r2,r2,6
   2043c:	10000f1e 	bne	r2,zero,2047c <HIL_test_frequency+0x60>

		if (increase_mode && (hil_timer_cnts > 0)) {
   20440:	e0bffe17 	ldw	r2,-8(fp)
   20444:	10000626 	beq	r2,zero,20460 <HIL_test_frequency+0x44>
   20448:	d0a00317 	ldw	r2,-32756(gp)
   2044c:	0080040e 	bge	zero,r2,20460 <HIL_test_frequency+0x44>
			hil_timer_cnts -= TIMER_CNTS_DELTA;
   20450:	d0a00317 	ldw	r2,-32756(gp)
   20454:	10bfff44 	addi	r2,r2,-3
   20458:	d0a00315 	stw	r2,-32756(gp)
   2045c:	00000306 	br	2046c <HIL_test_frequency+0x50>
		} else {
			hil_timer_cnts += TIMER_CNTS_DELTA;
   20460:	d0a00317 	ldw	r2,-32756(gp)
   20464:	108000c4 	addi	r2,r2,3
   20468:	d0a00315 	stw	r2,-32756(gp)
		}
		set_HIL_timer_cnts(hil_timer_cnts, 0);
   2046c:	d0a00317 	ldw	r2,-32756(gp)
   20470:	000b883a 	mov	r5,zero
   20474:	1009883a 	mov	r4,r2
   20478:	00202fc0 	call	202fc <set_HIL_timer_cnts>
	} else {

	}
	return hil_timer_cnts;
   2047c:	d0a00317 	ldw	r2,-32756(gp)
}
   20480:	e037883a 	mov	sp,fp
   20484:	dfc00117 	ldw	ra,4(sp)
   20488:	df000017 	ldw	fp,0(sp)
   2048c:	dec00204 	addi	sp,sp,8
   20490:	f800283a 	ret

00020494 <HIL_display_results>:


void HIL_display_results(int main_count, input_t *gInput, cmd_t *gCommand, int sec, state_general_t state){
   20494:	defff304 	addi	sp,sp,-52
   20498:	dfc00c15 	stw	ra,48(sp)
   2049c:	df000b15 	stw	fp,44(sp)
   204a0:	df000b04 	addi	fp,sp,44
   204a4:	e13fff15 	stw	r4,-4(fp)
   204a8:	e17ffe15 	stw	r5,-8(fp)
   204ac:	e1bffd15 	stw	r6,-12(fp)
   204b0:	e1fffc15 	stw	r7,-16(fp)


	printf("%d ,\t%d ,\t%f , \t%f , \t%d  , \t%d, \t%f \r\n",
   204b4:	e0bffe17 	ldw	r2,-8(fp)
   204b8:	12c00017 	ldw	r11,0(r2)
   204bc:	e0bffe17 	ldw	r2,-8(fp)
   204c0:	11800117 	ldw	r6,4(r2)
   204c4:	11c00217 	ldw	r7,8(r2)
   204c8:	e13ffe17 	ldw	r4,-8(fp)
   204cc:	20800417 	ldw	r2,16(r4)
   204d0:	20c00517 	ldw	r3,20(r4)
   204d4:	e13ffe17 	ldw	r4,-8(fp)
   204d8:	22400317 	ldw	r9,12(r4)
   204dc:	e13ffe17 	ldw	r4,-8(fp)
   204e0:	22800617 	ldw	r10,24(r4)
   204e4:	e23ffe17 	ldw	r8,-8(fp)
   204e8:	41000717 	ldw	r4,28(r8)
   204ec:	41400817 	ldw	r5,32(r8)
   204f0:	d9000515 	stw	r4,20(sp)
   204f4:	d9400615 	stw	r5,24(sp)
   204f8:	da800415 	stw	r10,16(sp)
   204fc:	da400315 	stw	r9,12(sp)
   20500:	d8800115 	stw	r2,4(sp)
   20504:	d8c00215 	stw	r3,8(sp)
   20508:	d9c00015 	stw	r7,0(sp)
   2050c:	300f883a 	mov	r7,r6
   20510:	580d883a 	mov	r6,r11
   20514:	e17fff17 	ldw	r5,-4(fp)
   20518:	010000f4 	movhi	r4,3
   2051c:	21099304 	addi	r4,r4,9804
   20520:	00254100 	call	25410 <printf>
			gInput->freq,
			gInput->timer_k,
			gInput->real_k,
			gInput->real_power);

}
   20524:	0001883a 	nop
   20528:	e037883a 	mov	sp,fp
   2052c:	dfc00117 	ldw	ra,4(sp)
   20530:	df000017 	ldw	fp,0(sp)
   20534:	dec00204 	addi	sp,sp,8
   20538:	f800283a 	ret

0002053c <put_reset_handler>:
int hil_timer_cnts = TIMER_CNTS_50HZ;

filter_t hil_params = { 100, 0, 5000 };
char* cmd_buffer;

void put_reset_handler(){
   2053c:	defffd04 	addi	sp,sp,-12
   20540:	dfc00215 	stw	ra,8(sp)
   20544:	df000115 	stw	fp,4(sp)
   20548:	df000104 	addi	fp,sp,4
	int put_rst = strcmp(cmd_buffer, "put rst");
   2054c:	d0a34417 	ldw	r2,-29424(gp)
   20550:	014000f4 	movhi	r5,3
   20554:	29499d04 	addi	r5,r5,9844
   20558:	1009883a 	mov	r4,r2
   2055c:	00255440 	call	25544 <strcmp>
   20560:	e0bfff15 	stw	r2,-4(fp)
	if (!put_rst) {
   20564:	e0bfff17 	ldw	r2,-4(fp)
   20568:	1000221e 	bne	r2,zero,205f4 <put_reset_handler+0xb8>
		g_main_count = 0;
   2056c:	d0234115 	stw	zero,-29436(gp)
		g_hil_finish = 0;
   20570:	d0234215 	stw	zero,-29432(gp)
		clear_dma();
   20574:	00216e00 	call	216e0 <clear_dma>
		delay_msec(1);
   20578:	01000044 	movi	r4,1
   2057c:	00217440 	call	21744 <delay_msec>
		printf("Reset of HIL recursive data completed.\r\n");
   20580:	010000f4 	movhi	r4,3
   20584:	21099f04 	addi	r4,r4,9852
   20588:	00255340 	call	25534 <puts>
		set_HIL_amplitude(hil_amplitude, 1);     // HIL::set amplitude with a display message
   2058c:	d0a00217 	ldw	r2,-32760(gp)
   20590:	01400044 	movi	r5,1
   20594:	1009883a 	mov	r4,r2
   20598:	002028c0 	call	2028c <set_HIL_amplitude>
		set_HIL_timer_cnts(TIMER_CNTS_50HZ, 1);  // HIL::set timer cnts (period) with display message
   2059c:	01400044 	movi	r5,1
   205a0:	0100f384 	movi	r4,974
   205a4:	00202fc0 	call	202fc <set_HIL_timer_cnts>
//		gInput.real_k = 0;
//		gInput.real_power = 0.0;
//		gInput.rms = 0.0;
//		gInput.sample_k = 0;
//		gInput.timer_k = 0;
		memset(&gInput,0,sizeof(gInput));
   205a8:	01800904 	movi	r6,36
   205ac:	000b883a 	mov	r5,zero
   205b0:	010000f4 	movhi	r4,3
   205b4:	21142004 	addi	r4,r4,20608
   205b8:	00252f00 	call	252f0 <memset>
		memset(&gCommand,0,sizeof(gCommand));
   205bc:	01800804 	movi	r6,32
   205c0:	000b883a 	mov	r5,zero
   205c4:	010000f4 	movhi	r4,3
   205c8:	21142904 	addi	r4,r4,20644
   205cc:	00252f00 	call	252f0 <memset>
		gCommand.active_power_max = 14200.0;
   205d0:	008000f4 	movhi	r2,3
   205d4:	10142915 	stw	zero,20644(r2)
   205d8:	00903334 	movhi	r2,16588
   205dc:	10af0004 	addi	r2,r2,-17408
   205e0:	00c000f4 	movhi	r3,3
   205e4:	18942a15 	stw	r2,20648(r3)
		ST_GENERAL = NOMINAL;
   205e8:	d0233f15 	stw	zero,-29444(gp)
		hil_timer_cnts = TIMER_CNTS_50HZ;
   205ec:	0080f384 	movi	r2,974
   205f0:	d0a00315 	stw	r2,-32756(gp)

	}

}
   205f4:	0001883a 	nop
   205f8:	e037883a 	mov	sp,fp
   205fc:	dfc00117 	ldw	ra,4(sp)
   20600:	df000017 	ldw	fp,0(sp)
   20604:	dec00204 	addi	sp,sp,8
   20608:	f800283a 	ret

0002060c <init_IRQ_data_structures>:
int timer_sec = 0;
int g_sec_counter = 0; /// Global Int, seconds counter
int g_sec_enable = 0;  /// Global Int, seconds counter enable


void init_IRQ_data_structures() {
   2060c:	deffff04 	addi	sp,sp,-4
   20610:	df000015 	stw	fp,0(sp)
   20614:	d839883a 	mov	fp,sp
	gInterrupt.tic = 0;
   20618:	008000f4 	movhi	r2,3
   2061c:	10143115 	stw	zero,20676(r2)
	gInterrupt.interval = 0;
   20620:	008000f4 	movhi	r2,3
   20624:	10143215 	stw	zero,20680(r2)
	gInterrupt.flag = 0;
   20628:	008000f4 	movhi	r2,3
   2062c:	10143315 	stw	zero,20684(r2)
}
   20630:	0001883a 	nop
   20634:	e037883a 	mov	sp,fp
   20638:	df000017 	ldw	fp,0(sp)
   2063c:	dec00104 	addi	sp,sp,4
   20640:	f800283a 	ret

00020644 <set_hardware_timer>:
///  \detailed X Modulo sets the timer period, while
///            Y Modulo sets the duty cycle. The XY
///            counter then interrupts Nios and is handled
///            by the handle_interrupt_IRQ()
///=======================================================
void set_hardware_timer() {
   20644:	deffff04 	addi	sp,sp,-4
   20648:	df000015 	stw	fp,0(sp)
   2064c:	d839883a 	mov	fp,sp
	IOWR_ALTERA_AVALON_PIO_DATA(O_REG32_2_BASE, gX_MODULO_INTR); // timer period
   20650:	d0e00517 	ldw	r3,-32748(gp)
   20654:	00800134 	movhi	r2,4
   20658:	10c52835 	stwio	r3,5280(r2)
	IOWR_ALTERA_AVALON_PIO_DATA(O_REG32_3_BASE, gY_MODULO_INTR); // timer duty cycle
   2065c:	d0e00617 	ldw	r3,-32744(gp)
   20660:	00800134 	movhi	r2,4
   20664:	10c52435 	stwio	r3,5264(r2)
}
   20668:	0001883a 	nop
   2066c:	e037883a 	mov	sp,fp
   20670:	df000017 	ldw	fp,0(sp)
   20674:	dec00104 	addi	sp,sp,4
   20678:	f800283a 	ret

0002067c <handle_hardware_IRQ>:
///=======================================================

int g_20msec = 0;
int g_mutex_hil = 0;  // A mutex to enable the HIL module

static void handle_hardware_IRQ(void* context) {
   2067c:	defffc04 	addi	sp,sp,-16
   20680:	dfc00315 	stw	ra,12(sp)
   20684:	df000215 	stw	fp,8(sp)
   20688:	df000204 	addi	fp,sp,8
   2068c:	e13ffe15 	stw	r4,-8(fp)

	volatile int* edge_capture_ptr = (volatile int*) context;
   20690:	e0bffe17 	ldw	r2,-8(fp)
   20694:	e0bfff15 	stw	r2,-4(fp)

	*edge_capture_ptr = IORD_ALTERA_AVALON_PIO_EDGE_CAP(I_REG32_0_BASE);
   20698:	00800134 	movhi	r2,4
   2069c:	10c55737 	ldwio	r3,5468(r2)
   206a0:	e0bfff17 	ldw	r2,-4(fp)
   206a4:	10c00015 	stw	r3,0(r2)

	if (gToggle) {
   206a8:	d0a34617 	ldw	r2,-29416(gp)
   206ac:	10000726 	beq	r2,zero,206cc <handle_hardware_IRQ+0x50>
		IOWR_ALTERA_AVALON_PIO_DATA(O_REG32_1_BASE, 0x0);  // Deassert toggle
   206b0:	0007883a 	mov	r3,zero
   206b4:	00800134 	movhi	r2,4
   206b8:	10c52c35 	stwio	r3,5296(r2)
		gToggle--;
   206bc:	d0a34617 	ldw	r2,-29416(gp)
   206c0:	10bfffc4 	addi	r2,r2,-1
   206c4:	d0a34615 	stw	r2,-29416(gp)
   206c8:	00001a06 	br	20734 <handle_hardware_IRQ+0xb8>
	} else {
		IOWR_ALTERA_AVALON_PIO_DATA(O_REG32_1_BASE, 0x1);  // Assert toggle
   206cc:	00c00044 	movi	r3,1
   206d0:	00800134 	movhi	r2,4
   206d4:	10c52c35 	stwio	r3,5296(r2)
		gToggle++;
   206d8:	d0a34617 	ldw	r2,-29416(gp)
   206dc:	10800044 	addi	r2,r2,1
   206e0:	d0a34615 	stw	r2,-29416(gp)
		g_20msec++;
   206e4:	d0a34a17 	ldw	r2,-29400(gp)
   206e8:	10800044 	addi	r2,r2,1
   206ec:	d0a34a15 	stw	r2,-29400(gp)

		if (!(g_20msec % 20)){
   206f0:	d0a34a17 	ldw	r2,-29400(gp)
   206f4:	01400504 	movi	r5,20
   206f8:	1009883a 	mov	r4,r2
   206fc:	0022b480 	call	22b48 <__modsi3>
   20700:	1000021e 	bne	r2,zero,2070c <handle_hardware_IRQ+0x90>
			g_mutex_hil = 1;
   20704:	00800044 	movi	r2,1
   20708:	d0a34b15 	stw	r2,-29396(gp)
		}

		if (!(g_20msec % 50)) {
   2070c:	d0a34a17 	ldw	r2,-29400(gp)
   20710:	01400c84 	movi	r5,50
   20714:	1009883a 	mov	r4,r2
   20718:	0022b480 	call	22b48 <__modsi3>
   2071c:	1000051e 	bne	r2,zero,20734 <handle_hardware_IRQ+0xb8>
			if (g_sec_enable) {
   20720:	d0a34917 	ldw	r2,-29404(gp)
   20724:	10000326 	beq	r2,zero,20734 <handle_hardware_IRQ+0xb8>
				g_sec_counter++;
   20728:	d0a34817 	ldw	r2,-29408(gp)
   2072c:	10800044 	addi	r2,r2,1
   20730:	d0a34815 	stw	r2,-29408(gp)
		}
//		if (!(g_20msec % 175) ){
//			clear_dma();
//		}
	}
	IOWR_ALTERA_AVALON_PIO_EDGE_CAP(I_REG32_0_BASE, 0);	   // Clear edge capture
   20734:	0007883a 	mov	r3,zero
   20738:	00800134 	movhi	r2,4
   2073c:	10c55735 	stwio	r3,5468(r2)
	IORD_ALTERA_AVALON_PIO_EDGE_CAP(I_REG32_0_BASE); // Read edge capture (stability)
   20740:	00800134 	movhi	r2,4
   20744:	10855737 	ldwio	r2,5468(r2)
}
   20748:	0001883a 	nop
   2074c:	e037883a 	mov	sp,fp
   20750:	dfc00117 	ldw	ra,4(sp)
   20754:	df000017 	ldw	fp,0(sp)
   20758:	dec00204 	addi	sp,sp,8
   2075c:	f800283a 	ret

00020760 <init_hardware_IRQ>:
///            the edge_capture_ptr with function pointer,
///            register the interrupt, clear the capture
///            flags, and then re-enable interrupt upon
///            finishing the routine.
///=======================================================
static void init_hardware_IRQ() {
   20760:	defffc04 	addi	sp,sp,-16
   20764:	dfc00315 	stw	ra,12(sp)
   20768:	df000215 	stw	fp,8(sp)
   2076c:	df000204 	addi	fp,sp,8

	IOWR_ALTERA_AVALON_PIO_IRQ_MASK(I_REG32_0_BASE, 0x0); // Disable the interrupt
   20770:	0007883a 	mov	r3,zero
   20774:	00800134 	movhi	r2,4
   20778:	10c55635 	stwio	r3,5464(r2)
	void* edge_capture_ptr = (void*) &edge_capture; // Cast edge capture as context pointer
   2077c:	d0a34504 	addi	r2,gp,-29420
   20780:	e0bfff15 	stw	r2,-4(fp)

	printf("Registering the interrupt routine...\r\n"); // Register interrupt message
   20784:	010000f4 	movhi	r4,3
   20788:	2109a904 	addi	r4,r4,9892
   2078c:	00255340 	call	25534 <puts>
	delay_msec(50);                                       // Allow time to print
   20790:	01000c84 	movi	r4,50
   20794:	00217440 	call	21744 <delay_msec>

	alt_ic_isr_register(I_REG32_0_IRQ_INTERRUPT_CONTROLLER_ID,
   20798:	d8000015 	stw	zero,0(sp)
   2079c:	e1ffff17 	ldw	r7,-4(fp)
   207a0:	018000b4 	movhi	r6,2
   207a4:	31819f04 	addi	r6,r6,1660
   207a8:	01400084 	movi	r5,2
   207ac:	0009883a 	mov	r4,zero
   207b0:	00301480 	call	30148 <alt_ic_isr_register>
	I_REG32_0_IRQ,                             // Register the interrupt handler
			handle_hardware_IRQ,                     // with alt_ic_isr_register
			edge_capture_ptr, 0x0);
	printf("Registering interrupt complete.\r\n\r\n"); // Registration completion message
   207b4:	010000f4 	movhi	r4,3
   207b8:	2109b304 	addi	r4,r4,9932
   207bc:	00255340 	call	25534 <puts>

	IOWR_ALTERA_AVALON_PIO_EDGE_CAP(I_REG32_0_BASE, 0x0); // Reset edge capture register
   207c0:	0007883a 	mov	r3,zero
   207c4:	00800134 	movhi	r2,4
   207c8:	10c55735 	stwio	r3,5468(r2)
	IOWR_ALTERA_AVALON_PIO_IRQ_MASK(I_REG32_0_BASE, 0x1); // Enable the interrupt
   207cc:	00c00044 	movi	r3,1
   207d0:	00800134 	movhi	r2,4
   207d4:	10c55635 	stwio	r3,5464(r2)
}
   207d8:	0001883a 	nop
   207dc:	e037883a 	mov	sp,fp
   207e0:	dfc00117 	ldw	ra,4(sp)
   207e4:	df000017 	ldw	fp,0(sp)
   207e8:	dec00204 	addi	sp,sp,8
   207ec:	f800283a 	ret

000207f0 <voltage_response_update>:
int gWatt_Enabled = 1;
int gWatt_Multi_Enabled = 1;

void voltage_response_update(input_t *gInput, cmd_t *gCommand);

void voltage_response_update(input_t *gInput, cmd_t *gCommand) {
   207f0:	deffeb04 	addi	sp,sp,-84
   207f4:	dfc01415 	stw	ra,80(sp)
   207f8:	df001315 	stw	fp,76(sp)
   207fc:	df001304 	addi	fp,sp,76
   20800:	e13fee15 	stw	r4,-72(fp)
   20804:	e17fed15 	stw	r5,-76(fp)

	input_t sampled_data;
	sampled_data = *gInput;
   20808:	e0bfee17 	ldw	r2,-72(fp)
   2080c:	10c00017 	ldw	r3,0(r2)
   20810:	e0fff715 	stw	r3,-36(fp)
   20814:	10c00117 	ldw	r3,4(r2)
   20818:	e0fff815 	stw	r3,-32(fp)
   2081c:	10c00217 	ldw	r3,8(r2)
   20820:	e0fff915 	stw	r3,-28(fp)
   20824:	10c00317 	ldw	r3,12(r2)
   20828:	e0fffa15 	stw	r3,-24(fp)
   2082c:	10c00417 	ldw	r3,16(r2)
   20830:	e0fffb15 	stw	r3,-20(fp)
   20834:	10c00517 	ldw	r3,20(r2)
   20838:	e0fffc15 	stw	r3,-16(fp)
   2083c:	10c00617 	ldw	r3,24(r2)
   20840:	e0fffd15 	stw	r3,-12(fp)
   20844:	10c00717 	ldw	r3,28(r2)
   20848:	e0fffe15 	stw	r3,-8(fp)
   2084c:	10800817 	ldw	r2,32(r2)
   20850:	e0bfff15 	stw	r2,-4(fp)
	cmd_t cmd_value;
	cmd_value = *gCommand;
   20854:	e0bfed17 	ldw	r2,-76(fp)
   20858:	10c00017 	ldw	r3,0(r2)
   2085c:	e0ffef15 	stw	r3,-68(fp)
   20860:	10c00117 	ldw	r3,4(r2)
   20864:	e0fff015 	stw	r3,-64(fp)
   20868:	10c00217 	ldw	r3,8(r2)
   2086c:	e0fff115 	stw	r3,-60(fp)
   20870:	10c00317 	ldw	r3,12(r2)
   20874:	e0fff215 	stw	r3,-56(fp)
   20878:	10c00417 	ldw	r3,16(r2)
   2087c:	e0fff315 	stw	r3,-52(fp)
   20880:	10c00517 	ldw	r3,20(r2)
   20884:	e0fff415 	stw	r3,-48(fp)
   20888:	10c00617 	ldw	r3,24(r2)
   2088c:	e0fff515 	stw	r3,-44(fp)
   20890:	10800717 	ldw	r2,28(r2)
   20894:	e0bff615 	stw	r2,-40(fp)

	if (sampled_data.rms < V_W1_CH) {
   20898:	e0bff817 	ldw	r2,-32(fp)
   2089c:	e0fff917 	ldw	r3,-28(fp)
   208a0:	000d883a 	mov	r6,zero
   208a4:	01d01ab4 	movhi	r7,16490
   208a8:	39f80004 	addi	r7,r7,-8192
   208ac:	1009883a 	mov	r4,r2
   208b0:	180b883a 	mov	r5,r3
   208b4:	0023fac0 	call	23fac <__ledf2>
   208b8:	1000050e 	bge	r2,zero,208d0 <voltage_response_update+0xe0>
		cmd_value.active_power_max = VW_MIN_POWER_MULTI;
   208bc:	e03fef15 	stw	zero,-68(fp)
   208c0:	00902df4 	movhi	r2,16567
   208c4:	109c0004 	addi	r2,r2,28672
   208c8:	e0bff015 	stw	r2,-64(fp)
   208cc:	00007406 	br	20aa0 <voltage_response_update+0x2b0>
	} else if ((sampled_data.rms > V_W1_CH) && (sampled_data.rms < V_W2_CH)) {
   208d0:	e0bff817 	ldw	r2,-32(fp)
   208d4:	e0fff917 	ldw	r3,-28(fp)
   208d8:	000d883a 	mov	r6,zero
   208dc:	01d01ab4 	movhi	r7,16490
   208e0:	39f80004 	addi	r7,r7,-8192
   208e4:	1009883a 	mov	r4,r2
   208e8:	180b883a 	mov	r5,r3
   208ec:	0023ec40 	call	23ec4 <__gedf2>
   208f0:	00802c0e 	bge	zero,r2,209a4 <voltage_response_update+0x1b4>
   208f4:	e0bff817 	ldw	r2,-32(fp)
   208f8:	e0fff917 	ldw	r3,-28(fp)
   208fc:	000d883a 	mov	r6,zero
   20900:	01d01af4 	movhi	r7,16491
   20904:	39f80004 	addi	r7,r7,-8192
   20908:	1009883a 	mov	r4,r2
   2090c:	180b883a 	mov	r5,r3
   20910:	0023fac0 	call	23fac <__ledf2>
   20914:	1000230e 	bge	r2,zero,209a4 <voltage_response_update+0x1b4>
		cmd_value.active_power_max = VW_MIN_POWER_MULTI
				+ K_watt_multi * (sampled_data.rms - V_W1_CH);
   20918:	e0bff817 	ldw	r2,-32(fp)
   2091c:	e0fff917 	ldw	r3,-28(fp)
   20920:	000d883a 	mov	r6,zero
   20924:	01d01ab4 	movhi	r7,16490
   20928:	39f80004 	addi	r7,r7,-8192
   2092c:	1009883a 	mov	r4,r2
   20930:	180b883a 	mov	r5,r3
   20934:	00248400 	call	24840 <__subdf3>
   20938:	1009883a 	mov	r4,r2
   2093c:	180b883a 	mov	r5,r3
   20940:	2005883a 	mov	r2,r4
   20944:	2807883a 	mov	r3,r5
   20948:	000d883a 	mov	r6,zero
   2094c:	01d029f4 	movhi	r7,16551
   20950:	39dc0004 	addi	r7,r7,28672
   20954:	1009883a 	mov	r4,r2
   20958:	180b883a 	mov	r5,r3
   2095c:	00240940 	call	24094 <__muldf3>
   20960:	1009883a 	mov	r4,r2
   20964:	180b883a 	mov	r5,r3
   20968:	2005883a 	mov	r2,r4
   2096c:	2807883a 	mov	r3,r5
   20970:	000d883a 	mov	r6,zero
   20974:	01d02df4 	movhi	r7,16567
   20978:	39dc0004 	addi	r7,r7,28672
   2097c:	1009883a 	mov	r4,r2
   20980:	180b883a 	mov	r5,r3
   20984:	0022ca40 	call	22ca4 <__adddf3>
   20988:	1009883a 	mov	r4,r2
   2098c:	180b883a 	mov	r5,r3
   20990:	2005883a 	mov	r2,r4
   20994:	2807883a 	mov	r3,r5
		cmd_value.active_power_max = VW_MIN_POWER_MULTI
   20998:	e0bfef15 	stw	r2,-68(fp)
   2099c:	e0fff015 	stw	r3,-64(fp)
   209a0:	00003f06 	br	20aa0 <voltage_response_update+0x2b0>
	}

	else if (sampled_data.rms > V_W2) {
   209a4:	e0bff817 	ldw	r2,-32(fp)
   209a8:	e0fff917 	ldw	r3,-28(fp)
   209ac:	000d883a 	mov	r6,zero
   209b0:	01d01c34 	movhi	r7,16496
   209b4:	39d00004 	addi	r7,r7,16384
   209b8:	1009883a 	mov	r4,r2
   209bc:	180b883a 	mov	r5,r3
   209c0:	0023ec40 	call	23ec4 <__gedf2>
   209c4:	0080050e 	bge	zero,r2,209dc <voltage_response_update+0x1ec>
		cmd_value.active_power_max = VW_MIN_POWER;
   209c8:	e03fef15 	stw	zero,-68(fp)
   209cc:	00902df4 	movhi	r2,16567
   209d0:	109c0004 	addi	r2,r2,28672
   209d4:	e0bff015 	stw	r2,-64(fp)
   209d8:	00003106 	br	20aa0 <voltage_response_update+0x2b0>
	} else if (sampled_data.rms > V_W1) {
   209dc:	e0bff817 	ldw	r2,-32(fp)
   209e0:	e0fff917 	ldw	r3,-28(fp)
   209e4:	000d883a 	mov	r6,zero
   209e8:	01d01c34 	movhi	r7,16496
   209ec:	39e80004 	addi	r7,r7,-24576
   209f0:	1009883a 	mov	r4,r2
   209f4:	180b883a 	mov	r5,r3
   209f8:	0023ec40 	call	23ec4 <__gedf2>
   209fc:	0080240e 	bge	zero,r2,20a90 <voltage_response_update+0x2a0>
		cmd_value.active_power_max = WATTS_RATED
				- K_watt * (sampled_data.rms - V_W1);
   20a00:	e0bff817 	ldw	r2,-32(fp)
   20a04:	e0fff917 	ldw	r3,-28(fp)
   20a08:	000d883a 	mov	r6,zero
   20a0c:	01d01c34 	movhi	r7,16496
   20a10:	39e80004 	addi	r7,r7,-24576
   20a14:	1009883a 	mov	r4,r2
   20a18:	180b883a 	mov	r5,r3
   20a1c:	00248400 	call	24840 <__subdf3>
   20a20:	1009883a 	mov	r4,r2
   20a24:	180b883a 	mov	r5,r3
   20a28:	2005883a 	mov	r2,r4
   20a2c:	2807883a 	mov	r3,r5
   20a30:	01a49274 	movhi	r6,37449
   20a34:	31892484 	addi	r6,r6,9362
   20a38:	01d02af4 	movhi	r7,16555
   20a3c:	39f24904 	addi	r7,r7,-14044
   20a40:	1009883a 	mov	r4,r2
   20a44:	180b883a 	mov	r5,r3
   20a48:	00240940 	call	24094 <__muldf3>
   20a4c:	1009883a 	mov	r4,r2
   20a50:	180b883a 	mov	r5,r3
   20a54:	2005883a 	mov	r2,r4
   20a58:	2807883a 	mov	r3,r5
   20a5c:	100d883a 	mov	r6,r2
   20a60:	180f883a 	mov	r7,r3
   20a64:	0009883a 	mov	r4,zero
   20a68:	01503774 	movhi	r5,16605
   20a6c:	29530004 	addi	r5,r5,19456
   20a70:	00248400 	call	24840 <__subdf3>
   20a74:	1009883a 	mov	r4,r2
   20a78:	180b883a 	mov	r5,r3
   20a7c:	2005883a 	mov	r2,r4
   20a80:	2807883a 	mov	r3,r5
		cmd_value.active_power_max = WATTS_RATED
   20a84:	e0bfef15 	stw	r2,-68(fp)
   20a88:	e0fff015 	stw	r3,-64(fp)
   20a8c:	00000406 	br	20aa0 <voltage_response_update+0x2b0>
	} else {
		cmd_value.active_power_max = WATTS_RATED;
   20a90:	e03fef15 	stw	zero,-68(fp)
   20a94:	00903774 	movhi	r2,16605
   20a98:	10930004 	addi	r2,r2,19456
   20a9c:	e0bff015 	stw	r2,-64(fp)
	}

	if (gVar_Enabled) {
   20aa0:	d0a00717 	ldw	r2,-32740(gp)
   20aa4:	10008526 	beq	r2,zero,20cbc <voltage_response_update+0x4cc>
		if (sampled_data.rms < V_V1) {
   20aa8:	e0bff817 	ldw	r2,-32(fp)
   20aac:	e0fff917 	ldw	r3,-28(fp)
   20ab0:	000d883a 	mov	r6,zero
   20ab4:	01d01ab4 	movhi	r7,16490
   20ab8:	39f80004 	addi	r7,r7,-8192
   20abc:	1009883a 	mov	r4,r2
   20ac0:	180b883a 	mov	r5,r3
   20ac4:	0023fac0 	call	23fac <__ledf2>
   20ac8:	1000050e 	bge	r2,zero,20ae0 <voltage_response_update+0x2f0>
			cmd_value.reactive_power = VV_MAX_VAR_DELIVER;
   20acc:	e03ff315 	stw	zero,-52(fp)
   20ad0:	009032b4 	movhi	r2,16586
   20ad4:	10978004 	addi	r2,r2,24064
   20ad8:	e0bff415 	stw	r2,-48(fp)
   20adc:	00007706 	br	20cbc <voltage_response_update+0x4cc>
		} else if ((sampled_data.rms > V_V1) && (sampled_data.rms < V_V2)) {
   20ae0:	e0bff817 	ldw	r2,-32(fp)
   20ae4:	e0fff917 	ldw	r3,-28(fp)
   20ae8:	000d883a 	mov	r6,zero
   20aec:	01d01ab4 	movhi	r7,16490
   20af0:	39f80004 	addi	r7,r7,-8192
   20af4:	1009883a 	mov	r4,r2
   20af8:	180b883a 	mov	r5,r3
   20afc:	0023ec40 	call	23ec4 <__gedf2>
   20b00:	00802d0e 	bge	zero,r2,20bb8 <voltage_response_update+0x3c8>
   20b04:	e0bff817 	ldw	r2,-32(fp)
   20b08:	e0fff917 	ldw	r3,-28(fp)
   20b0c:	000d883a 	mov	r6,zero
   20b10:	01d01b34 	movhi	r7,16492
   20b14:	39e00004 	addi	r7,r7,-32768
   20b18:	1009883a 	mov	r4,r2
   20b1c:	180b883a 	mov	r5,r3
   20b20:	0023fac0 	call	23fac <__ledf2>
   20b24:	1000240e 	bge	r2,zero,20bb8 <voltage_response_update+0x3c8>
			cmd_value.reactive_power = VV_MAX_VAR_DELIVER
					- K_var_deliver * (sampled_data.rms - V_V1);
   20b28:	e0bff817 	ldw	r2,-32(fp)
   20b2c:	e0fff917 	ldw	r3,-28(fp)
   20b30:	000d883a 	mov	r6,zero
   20b34:	01d01ab4 	movhi	r7,16490
   20b38:	39f80004 	addi	r7,r7,-8192
   20b3c:	1009883a 	mov	r4,r2
   20b40:	180b883a 	mov	r5,r3
   20b44:	00248400 	call	24840 <__subdf3>
   20b48:	1009883a 	mov	r4,r2
   20b4c:	180b883a 	mov	r5,r3
   20b50:	2005883a 	mov	r2,r4
   20b54:	2807883a 	mov	r3,r5
   20b58:	01a762b4 	movhi	r6,40330
   20b5c:	31b62784 	addi	r6,r6,-10082
   20b60:	01d02434 	movhi	r7,16528
   20b64:	39ce7604 	addi	r7,r7,14808
   20b68:	1009883a 	mov	r4,r2
   20b6c:	180b883a 	mov	r5,r3
   20b70:	00240940 	call	24094 <__muldf3>
   20b74:	1009883a 	mov	r4,r2
   20b78:	180b883a 	mov	r5,r3
   20b7c:	2005883a 	mov	r2,r4
   20b80:	2807883a 	mov	r3,r5
   20b84:	100d883a 	mov	r6,r2
   20b88:	180f883a 	mov	r7,r3
   20b8c:	0009883a 	mov	r4,zero
   20b90:	015032b4 	movhi	r5,16586
   20b94:	29578004 	addi	r5,r5,24064
   20b98:	00248400 	call	24840 <__subdf3>
   20b9c:	1009883a 	mov	r4,r2
   20ba0:	180b883a 	mov	r5,r3
   20ba4:	2005883a 	mov	r2,r4
   20ba8:	2807883a 	mov	r3,r5
			cmd_value.reactive_power = VV_MAX_VAR_DELIVER
   20bac:	e0bff315 	stw	r2,-52(fp)
   20bb0:	e0fff415 	stw	r3,-48(fp)
   20bb4:	00004106 	br	20cbc <voltage_response_update+0x4cc>
		} else if ((sampled_data.rms > V_V2) && (sampled_data.rms < V_V3)) {
   20bb8:	e0bff817 	ldw	r2,-32(fp)
   20bbc:	e0fff917 	ldw	r3,-28(fp)
   20bc0:	000d883a 	mov	r6,zero
   20bc4:	01d01b34 	movhi	r7,16492
   20bc8:	39e00004 	addi	r7,r7,-32768
   20bcc:	1009883a 	mov	r4,r2
   20bd0:	180b883a 	mov	r5,r3
   20bd4:	0023ec40 	call	23ec4 <__gedf2>
   20bd8:	00800b0e 	bge	zero,r2,20c08 <voltage_response_update+0x418>
   20bdc:	e0bff817 	ldw	r2,-32(fp)
   20be0:	e0fff917 	ldw	r3,-28(fp)
   20be4:	000d883a 	mov	r6,zero
   20be8:	01d01bb4 	movhi	r7,16494
   20bec:	1009883a 	mov	r4,r2
   20bf0:	180b883a 	mov	r5,r3
   20bf4:	0023fac0 	call	23fac <__ledf2>
   20bf8:	1000030e 	bge	r2,zero,20c08 <voltage_response_update+0x418>
			cmd_value.reactive_power = 0;
   20bfc:	e03ff315 	stw	zero,-52(fp)
   20c00:	e03ff415 	stw	zero,-48(fp)
   20c04:	00002d06 	br	20cbc <voltage_response_update+0x4cc>
		} else if ((sampled_data.rms > V_V3) && (sampled_data.rms < V_V4)) {
   20c08:	e0bff817 	ldw	r2,-32(fp)
   20c0c:	e0fff917 	ldw	r3,-28(fp)
   20c10:	000d883a 	mov	r6,zero
   20c14:	01d01bb4 	movhi	r7,16494
   20c18:	1009883a 	mov	r4,r2
   20c1c:	180b883a 	mov	r5,r3
   20c20:	0023ec40 	call	23ec4 <__gedf2>
   20c24:	0080210e 	bge	zero,r2,20cac <voltage_response_update+0x4bc>
   20c28:	e0bff817 	ldw	r2,-32(fp)
   20c2c:	e0fff917 	ldw	r3,-28(fp)
   20c30:	000d883a 	mov	r6,zero
   20c34:	01d01c34 	movhi	r7,16496
   20c38:	39c80004 	addi	r7,r7,8192
   20c3c:	1009883a 	mov	r4,r2
   20c40:	180b883a 	mov	r5,r3
   20c44:	0023fac0 	call	23fac <__ledf2>
   20c48:	1000180e 	bge	r2,zero,20cac <voltage_response_update+0x4bc>
			cmd_value.reactive_power = K_var_absorb * (sampled_data.rms - V_V3);
   20c4c:	e0bff817 	ldw	r2,-32(fp)
   20c50:	e0fff917 	ldw	r3,-28(fp)
   20c54:	000d883a 	mov	r6,zero
   20c58:	01d01bb4 	movhi	r7,16494
   20c5c:	1009883a 	mov	r4,r2
   20c60:	180b883a 	mov	r5,r3
   20c64:	00248400 	call	24840 <__subdf3>
   20c68:	1009883a 	mov	r4,r2
   20c6c:	180b883a 	mov	r5,r3
   20c70:	2005883a 	mov	r2,r4
   20c74:	2807883a 	mov	r3,r5
   20c78:	000d883a 	mov	r6,zero
   20c7c:	01d023f4 	movhi	r7,16527
   20c80:	39d00004 	addi	r7,r7,16384
   20c84:	1009883a 	mov	r4,r2
   20c88:	180b883a 	mov	r5,r3
   20c8c:	00240940 	call	24094 <__muldf3>
   20c90:	1009883a 	mov	r4,r2
   20c94:	180b883a 	mov	r5,r3
   20c98:	2005883a 	mov	r2,r4
   20c9c:	2807883a 	mov	r3,r5
   20ca0:	e0bff315 	stw	r2,-52(fp)
   20ca4:	e0fff415 	stw	r3,-48(fp)
   20ca8:	00000406 	br	20cbc <voltage_response_update+0x4cc>
		} else {
			cmd_value.reactive_power = VV_MAX_VAR_ABSORB;
   20cac:	e03ff315 	stw	zero,-52(fp)
   20cb0:	009034b4 	movhi	r2,16594
   20cb4:	10a50004 	addi	r2,r2,-27648
   20cb8:	e0bff415 	stw	r2,-48(fp)
		}
	}

	*gInput = sampled_data;
   20cbc:	e0bfee17 	ldw	r2,-72(fp)
   20cc0:	e0fff717 	ldw	r3,-36(fp)
   20cc4:	10c00015 	stw	r3,0(r2)
   20cc8:	e0fff817 	ldw	r3,-32(fp)
   20ccc:	10c00115 	stw	r3,4(r2)
   20cd0:	e0fff917 	ldw	r3,-28(fp)
   20cd4:	10c00215 	stw	r3,8(r2)
   20cd8:	e0fffa17 	ldw	r3,-24(fp)
   20cdc:	10c00315 	stw	r3,12(r2)
   20ce0:	e0fffb17 	ldw	r3,-20(fp)
   20ce4:	10c00415 	stw	r3,16(r2)
   20ce8:	e0fffc17 	ldw	r3,-16(fp)
   20cec:	10c00515 	stw	r3,20(r2)
   20cf0:	e0fffd17 	ldw	r3,-12(fp)
   20cf4:	10c00615 	stw	r3,24(r2)
   20cf8:	e0fffe17 	ldw	r3,-8(fp)
   20cfc:	10c00715 	stw	r3,28(r2)
   20d00:	e0ffff17 	ldw	r3,-4(fp)
   20d04:	10c00815 	stw	r3,32(r2)
	*gCommand = cmd_value;
   20d08:	e0bfed17 	ldw	r2,-76(fp)
   20d0c:	e0ffef17 	ldw	r3,-68(fp)
   20d10:	10c00015 	stw	r3,0(r2)
   20d14:	e0fff017 	ldw	r3,-64(fp)
   20d18:	10c00115 	stw	r3,4(r2)
   20d1c:	e0fff117 	ldw	r3,-60(fp)
   20d20:	10c00215 	stw	r3,8(r2)
   20d24:	e0fff217 	ldw	r3,-56(fp)
   20d28:	10c00315 	stw	r3,12(r2)
   20d2c:	e0fff317 	ldw	r3,-52(fp)
   20d30:	10c00415 	stw	r3,16(r2)
   20d34:	e0fff417 	ldw	r3,-48(fp)
   20d38:	10c00515 	stw	r3,20(r2)
   20d3c:	e0fff517 	ldw	r3,-44(fp)
   20d40:	10c00615 	stw	r3,24(r2)
   20d44:	e0fff617 	ldw	r3,-40(fp)
   20d48:	10c00715 	stw	r3,28(r2)
}
   20d4c:	0001883a 	nop
   20d50:	e037883a 	mov	sp,fp
   20d54:	dfc00117 	ldw	ra,4(sp)
   20d58:	df000017 	ldw	fp,0(sp)
   20d5c:	dec00204 	addi	sp,sp,8
   20d60:	f800283a 	ret

00020d64 <state_INIT>:
///===================================================
/// \brief     Main Finite State Machine INIT state.
/// \detailed  Display the banner and menu, clear
///            and reset fpga fabric, vector to enable.
///===================================================
static void state_INIT(void) {
   20d64:	defffe04 	addi	sp,sp,-8
   20d68:	dfc00115 	stw	ra,4(sp)
   20d6c:	df000015 	stw	fp,0(sp)
   20d70:	d839883a 	mov	fp,sp
	clear_terminal();                        // clear terminal (putty)
   20d74:	002178c0 	call	2178c <clear_terminal>
	display_welcome_message();               // Stabiliti-Q banner
   20d78:	00214840 	call	21484 <display_welcome_message>
	display_Version(1);                      // Display complete version information
   20d7c:	01000044 	movi	r4,1
   20d80:	00214d80 	call	214d8 <display_Version>

	clear_dma();                             // Clear the dma in fpga avalon module
   20d84:	00216e00 	call	216e0 <clear_dma>

	set_hardware_timer();                    // set XY_Counter in FPGA VHDL
   20d88:	00206440 	call	20644 <set_hardware_timer>
	init_hardware_IRQ();                     // Register the interrupt for XY_Counter tic
   20d8c:	00207600 	call	20760 <init_hardware_IRQ>

	set_HIL_amplitude(hil_amplitude, 1);     // HIL::set amplitude with a display message
   20d90:	d0a00217 	ldw	r2,-32760(gp)
   20d94:	01400044 	movi	r5,1
   20d98:	1009883a 	mov	r4,r2
   20d9c:	002028c0 	call	2028c <set_HIL_amplitude>
	set_HIL_timer_cnts(TIMER_CNTS_50HZ, 1);  // HIL::set timer cnts (period) with display message
   20da0:	01400044 	movi	r5,1
   20da4:	0100f384 	movi	r4,974
   20da8:	00202fc0 	call	202fc <set_HIL_timer_cnts>

	set_HIL_filter(&hil_params);             // HIL::set parameters of low pass to generate currents
   20dac:	010000f4 	movhi	r4,3
   20db0:	210dba04 	addi	r4,r4,14056
   20db4:	00203d00 	call	203d0 <set_HIL_filter>

	set_squares_filter(&squares_params);     // signal_processing.vhd set sum squares filter params
   20db8:	010000f4 	movhi	r4,3
   20dbc:	210dbd04 	addi	r4,r4,14068
   20dc0:	00226440 	call	22644 <set_squares_filter>
	set_timer_filter(&timer_params);         // signal_processing.vhd set freq filter params
   20dc4:	010000f4 	movhi	r4,3
   20dc8:	210dc004 	addi	r4,r4,14080
   20dcc:	00226a40 	call	226a4 <set_timer_filter>

	run_simple_test_sequence();              // Run simple test sequence
   20dd0:	00218b00 	call	218b0 <run_simple_test_sequence>

	gCommand.active_power_max = 14200.0;     // Set maximum rated power
   20dd4:	008000f4 	movhi	r2,3
   20dd8:	10142915 	stw	zero,20644(r2)
   20ddc:	00903334 	movhi	r2,16588
   20de0:	10af0004 	addi	r2,r2,-17408
   20de4:	00c000f4 	movhi	r3,3
   20de8:	18942a15 	stw	r2,20648(r3)
	gCommand.reactive_power = 0.0;           // Set nominal reactive power
   20dec:	008000f4 	movhi	r2,3
   20df0:	10142d15 	stw	zero,20660(r2)
   20df4:	008000f4 	movhi	r2,3
   20df8:	10142e15 	stw	zero,20664(r2)

	gMode = Volt_Watt_Var;                   // Assign mode
   20dfc:	00800084 	movi	r2,2
   20e00:	d0a33c15 	stw	r2,-29456(gp)
	//print_mode(gMode);				     // Print the currently mode

	select_HIL_inputs();                     // Select HIL data as mux input to signal processing chain
   20e04:	00202600 	call	20260 <select_HIL_inputs>
	gInput.rms = 0.0;
   20e08:	008000f4 	movhi	r2,3
   20e0c:	10142115 	stw	zero,20612(r2)
   20e10:	008000f4 	movhi	r2,3
   20e14:	10142215 	stw	zero,20616(r2)
	state = state_ENA;
   20e18:	008000b4 	movhi	r2,2
   20e1c:	10838f04 	addi	r2,r2,3644
   20e20:	d0a00015 	stw	r2,-32768(gp)
}
   20e24:	0001883a 	nop
   20e28:	e037883a 	mov	sp,fp
   20e2c:	dfc00117 	ldw	ra,4(sp)
   20e30:	df000017 	ldw	fp,0(sp)
   20e34:	dec00204 	addi	sp,sp,8
   20e38:	f800283a 	ret

00020e3c <state_ENA>:
/// \detailed  Read the slide switches and data stack,
///            and call handlers for these. Check for
///            command to vector to RUN. In
///            future, support FLT inputs.
///===================================================
static void state_ENA(void) {
   20e3c:	defff804 	addi	sp,sp,-32
   20e40:	dfc00715 	stw	ra,28(sp)
   20e44:	df000615 	stw	fp,24(sp)
   20e48:	df000604 	addi	fp,sp,24

	read_data_stack();              // read of data stack
   20e4c:	00212f00 	call	212f0 <read_data_stack>
	read_data_stack();
   20e50:	00212f00 	call	212f0 <read_data_stack>
	delay_msec(20);
   20e54:	01000504 	movi	r4,20
   20e58:	00217440 	call	21744 <delay_msec>
	clear_terminal_handler();       // clear terminal if commanded
   20e5c:	00212980 	call	21298 <clear_terminal_handler>
	read_data_stack();              // read of data stack
   20e60:	00212f00 	call	212f0 <read_data_stack>
	delay_msec(20);
   20e64:	01000504 	movi	r4,20
   20e68:	00217440 	call	21744 <delay_msec>
	get_version_handler();          // display version if commanded
   20e6c:	00213d40 	call	213d4 <get_version_handler>
	get_menu_handler();             // display menu if commanded
   20e70:	002142c0 	call	2142c <get_menu_handler>
	put_reset_handler();            // reset of the HIL data
   20e74:	002053c0 	call	2053c <put_reset_handler>

	read_data_stack();              // read of data stack
   20e78:	00212f00 	call	212f0 <read_data_stack>
	delay_msec(20);
   20e7c:	01000504 	movi	r4,20
   20e80:	00217440 	call	21744 <delay_msec>

	int put_hil_freq_01 = strcmp(cmd_buffer, CMD_HIL_FREQ_01);
   20e84:	d0a34417 	ldw	r2,-29424(gp)
   20e88:	014000f4 	movhi	r5,3
   20e8c:	2949bc04 	addi	r5,r5,9968
   20e90:	1009883a 	mov	r4,r2
   20e94:	00255440 	call	25544 <strcmp>
   20e98:	e0bfff15 	stw	r2,-4(fp)
	if (!put_hil_freq_01) {
   20e9c:	e0bfff17 	ldw	r2,-4(fp)
   20ea0:	1000121e 	bne	r2,zero,20eec <state_ENA+0xb0>
		printf("\r\n***Updated HIL Command \r\n");
   20ea4:	010000f4 	movhi	r4,3
   20ea8:	2109be04 	addi	r4,r4,9976
   20eac:	00255340 	call	25534 <puts>
		printf("-----------------------\r\n");
   20eb0:	010000f4 	movhi	r4,3
   20eb4:	2109c504 	addi	r4,r4,10004
   20eb8:	00255340 	call	25534 <puts>
		printf("HIL FREQ TEST 01 - General Case Decrease. \r\n");
   20ebc:	010000f4 	movhi	r4,3
   20ec0:	2109cc04 	addi	r4,r4,10032
   20ec4:	00255340 	call	25534 <puts>
		printf("Freq will decrease then return to NOMINAL.\r\n");
   20ec8:	010000f4 	movhi	r4,3
   20ecc:	2109d704 	addi	r4,r4,10076
   20ed0:	00255340 	call	25534 <puts>
		clear_dma();
   20ed4:	00216e00 	call	216e0 <clear_dma>
		g_hil_mode = FREQ_DECREASE;
   20ed8:	00800044 	movi	r2,1
   20edc:	d0a34315 	stw	r2,-29428(gp)
		g_hil_pivot = 18;
   20ee0:	00800484 	movi	r2,18
   20ee4:	d0a00115 	stw	r2,-32764(gp)
		g_hil_finish = 0;
   20ee8:	d0234215 	stw	zero,-29432(gp)
	}

	int put_hil_freq_02 = strcmp(cmd_buffer, CMD_HIL_FREQ_02);
   20eec:	d0a34417 	ldw	r2,-29424(gp)
   20ef0:	014000f4 	movhi	r5,3
   20ef4:	2949e204 	addi	r5,r5,10120
   20ef8:	1009883a 	mov	r4,r2
   20efc:	00255440 	call	25544 <strcmp>
   20f00:	e0bffe15 	stw	r2,-8(fp)
	if (!put_hil_freq_02) {
   20f04:	e0bffe17 	ldw	r2,-8(fp)
   20f08:	1000121e 	bne	r2,zero,20f54 <state_ENA+0x118>
		printf("\r\n***Updated HIL Command \r\n");
   20f0c:	010000f4 	movhi	r4,3
   20f10:	2109be04 	addi	r4,r4,9976
   20f14:	00255340 	call	25534 <puts>
		printf("-----------------------\r\n");
   20f18:	010000f4 	movhi	r4,3
   20f1c:	2109c504 	addi	r4,r4,10004
   20f20:	00255340 	call	25534 <puts>
		printf("HIL FREQ TEST 02 - General Case Decrease to Max. \r\n");
   20f24:	010000f4 	movhi	r4,3
   20f28:	2109e404 	addi	r4,r4,10128
   20f2c:	00255340 	call	25534 <puts>
		printf("Freq will decrease to MAX POWER, then return to NOMINAL.\r\n");
   20f30:	010000f4 	movhi	r4,3
   20f34:	2109f104 	addi	r4,r4,10180
   20f38:	00255340 	call	25534 <puts>
		clear_dma();
   20f3c:	00216e00 	call	216e0 <clear_dma>
		g_hil_mode = FREQ_DECREASE;
   20f40:	00800044 	movi	r2,1
   20f44:	d0a34315 	stw	r2,-29428(gp)
		g_hil_pivot = 26;
   20f48:	00800684 	movi	r2,26
   20f4c:	d0a00115 	stw	r2,-32764(gp)
		g_hil_finish = 0;
   20f50:	d0234215 	stw	zero,-29432(gp)
	}

	int put_hil_freq_03 = strcmp(cmd_buffer, CMD_HIL_FREQ_03);
   20f54:	d0a34417 	ldw	r2,-29424(gp)
   20f58:	014000f4 	movhi	r5,3
   20f5c:	294a0004 	addi	r5,r5,10240
   20f60:	1009883a 	mov	r4,r2
   20f64:	00255440 	call	25544 <strcmp>
   20f68:	e0bffd15 	stw	r2,-12(fp)
	if (!put_hil_freq_03) {
   20f6c:	e0bffd17 	ldw	r2,-12(fp)
   20f70:	1000111e 	bne	r2,zero,20fb8 <state_ENA+0x17c>
		printf("\r\n***Updated HIL Command \r\n");
   20f74:	010000f4 	movhi	r4,3
   20f78:	2109be04 	addi	r4,r4,9976
   20f7c:	00255340 	call	25534 <puts>
		printf("-----------------------\r\n");
   20f80:	010000f4 	movhi	r4,3
   20f84:	2109c504 	addi	r4,r4,10004
   20f88:	00255340 	call	25534 <puts>
		printf("HIL FREQ TEST 03 - General Case Increase. \r\n");
   20f8c:	010000f4 	movhi	r4,3
   20f90:	210a0204 	addi	r4,r4,10248
   20f94:	00255340 	call	25534 <puts>
		printf(
   20f98:	010000f4 	movhi	r4,3
   20f9c:	210a0d04 	addi	r4,r4,10292
   20fa0:	00255340 	call	25534 <puts>
				"Freq will increase to FREQ_RISING, then return to NOMINAL.\r\n");
		clear_dma();
   20fa4:	00216e00 	call	216e0 <clear_dma>
		g_hil_mode = FREQ_INCREASE;
   20fa8:	d0234315 	stw	zero,-29428(gp)
		g_hil_pivot = 22;
   20fac:	00800584 	movi	r2,22
   20fb0:	d0a00115 	stw	r2,-32764(gp)
		g_hil_finish = 0;
   20fb4:	d0234215 	stw	zero,-29432(gp)
	}

	int put_hil_freq_04 = strcmp(cmd_buffer, CMD_HIL_FREQ_04);
   20fb8:	d0a34417 	ldw	r2,-29424(gp)
   20fbc:	014000f4 	movhi	r5,3
   20fc0:	294a1c04 	addi	r5,r5,10352
   20fc4:	1009883a 	mov	r4,r2
   20fc8:	00255440 	call	25544 <strcmp>
   20fcc:	e0bffc15 	stw	r2,-16(fp)
	if (!put_hil_freq_04) {
   20fd0:	e0bffc17 	ldw	r2,-16(fp)
   20fd4:	1000111e 	bne	r2,zero,2101c <state_ENA+0x1e0>
		printf("\r\n***Updated HIL Command \r\n");
   20fd8:	010000f4 	movhi	r4,3
   20fdc:	2109be04 	addi	r4,r4,9976
   20fe0:	00255340 	call	25534 <puts>
		printf("-----------------------\r\n");
   20fe4:	010000f4 	movhi	r4,3
   20fe8:	2109c504 	addi	r4,r4,10004
   20fec:	00255340 	call	25534 <puts>
		printf("HIL FREQ TEST 04 - General Case Increase to Max. \r\n");
   20ff0:	010000f4 	movhi	r4,3
   20ff4:	210a1e04 	addi	r4,r4,10360
   20ff8:	00255340 	call	25534 <puts>
		printf("Freq will increase to MIN POWER, then return to NOMINAL.\r\n");
   20ffc:	010000f4 	movhi	r4,3
   21000:	210a2b04 	addi	r4,r4,10412
   21004:	00255340 	call	25534 <puts>
		clear_dma();
   21008:	00216e00 	call	216e0 <clear_dma>
		g_hil_mode = FREQ_INCREASE;
   2100c:	d0234315 	stw	zero,-29428(gp)
		g_hil_pivot = 27;
   21010:	008006c4 	movi	r2,27
   21014:	d0a00115 	stw	r2,-32764(gp)
		g_hil_finish = 0;
   21018:	d0234215 	stw	zero,-29432(gp)
	}

	read_data_stack();
   2101c:	00212f00 	call	212f0 <read_data_stack>
	delay_msec(20);
   21020:	01000504 	movi	r4,20
   21024:	00217440 	call	21744 <delay_msec>
	int cmd_enax = strcmp(cmd_buffer, CMD_ENA);
   21028:	d0a34417 	ldw	r2,-29424(gp)
   2102c:	014000f4 	movhi	r5,3
   21030:	294a3a04 	addi	r5,r5,10472
   21034:	1009883a 	mov	r4,r2
   21038:	00255440 	call	25544 <strcmp>
   2103c:	e0bffb15 	stw	r2,-20(fp)
	if (!cmd_enax) {
   21040:	e0bffb17 	ldw	r2,-20(fp)
   21044:	1000041e 	bne	r2,zero,21058 <state_ENA+0x21c>
		printf("Already in ENA state!\r\n");
   21048:	010000f4 	movhi	r4,3
   2104c:	210a3c04 	addi	r4,r4,10480
   21050:	00255340 	call	25534 <puts>
		clear_dma();
   21054:	00216e00 	call	216e0 <clear_dma>
	}

	int cmd_run = strcmp(cmd_buffer, CMD_RUN);
   21058:	d0a34417 	ldw	r2,-29424(gp)
   2105c:	014000f4 	movhi	r5,3
   21060:	294a4204 	addi	r5,r5,10504
   21064:	1009883a 	mov	r4,r2
   21068:	00255440 	call	25544 <strcmp>
   2106c:	e0bffa15 	stw	r2,-24(fp)
	if (!cmd_run) {
   21070:	e0bffa17 	ldw	r2,-24(fp)
   21074:	1000101e 	bne	r2,zero,210b8 <state_ENA+0x27c>
		//printf("*** Vectoring -> state_RUN ...\r\n");


		printf("\r\n");
   21078:	010000f4 	movhi	r4,3
   2107c:	210a4404 	addi	r4,r4,10512
   21080:	00255340 	call	25534 <puts>
		printf("SIMULATION::START \r\n");
   21084:	010000f4 	movhi	r4,3
   21088:	210a4504 	addi	r4,r4,10516
   2108c:	00255340 	call	25534 <puts>
		printf("Count,\tSum Squares,\tVrms_Nios,\tFreqHz_Nios,\tTimer Cnts,\tWatts Squared,\tWatts_Nios \r\n");
   21090:	010000f4 	movhi	r4,3
   21094:	210a4a04 	addi	r4,r4,10536
   21098:	00255340 	call	25534 <puts>

		clear_dma();
   2109c:	00216e00 	call	216e0 <clear_dma>
		delay_msec(10);
   210a0:	01000284 	movi	r4,10
   210a4:	00217440 	call	21744 <delay_msec>
		state = state_RUN;
   210a8:	008000b4 	movhi	r2,2
   210ac:	10843704 	addi	r2,r2,4316
   210b0:	d0a00015 	stw	r2,-32768(gp)
	} else {
		state = state_ENA;
	}
}
   210b4:	00000306 	br	210c4 <state_ENA+0x288>
		state = state_ENA;
   210b8:	008000b4 	movhi	r2,2
   210bc:	10838f04 	addi	r2,r2,3644
   210c0:	d0a00015 	stw	r2,-32768(gp)
}
   210c4:	0001883a 	nop
   210c8:	e037883a 	mov	sp,fp
   210cc:	dfc00117 	ldw	ra,4(sp)
   210d0:	df000017 	ldw	fp,0(sp)
   210d4:	dec00204 	addi	sp,sp,8
   210d8:	f800283a 	ret

000210dc <state_RUN>:
/// \detailed  Read the slide switches and data stack,
///            and call handlers for these. Check for
///            command to vector back to ENA. In
///            future, support FLT inputs.
///===================================================
static void state_RUN(void) {
   210dc:	defffc04 	addi	sp,sp,-16
   210e0:	dfc00315 	stw	ra,12(sp)
   210e4:	df000215 	stw	fp,8(sp)
   210e8:	df000204 	addi	fp,sp,8

	//------------------------------------------------
	// Power_Quality::Sample_Inputs
	//------------------------------------------------
	voltage_sample(&gInput);
   210ec:	010000f4 	movhi	r4,3
   210f0:	21142004 	addi	r4,r4,20608
   210f4:	002228c0 	call	2228c <voltage_sample>
	frequency_sample(&gInput);
   210f8:	010000f4 	movhi	r4,3
   210fc:	21142004 	addi	r4,r4,20608
   21100:	00223c40 	call	223c4 <frequency_sample>
	sample_power_values(&gInput);
   21104:	010000f4 	movhi	r4,3
   21108:	21142004 	addi	r4,r4,20608
   2110c:	002250c0 	call	2250c <sample_power_values>

	if (g_mutex_hil){
   21110:	d0a34b17 	ldw	r2,-29396(gp)
   21114:	10001626 	beq	r2,zero,21170 <state_RUN+0x94>
//	}

	//------------------------------------------------
	// HIL::Display_Results
	//------------------------------------------------
	HIL_display_results(g_main_count, &gInput, &gCommand, g_sec_counter, ST_GENERAL);
   21118:	d0e34117 	ldw	r3,-29436(gp)
   2111c:	d1234817 	ldw	r4,-29408(gp)
   21120:	d0a33f17 	ldw	r2,-29444(gp)
   21124:	d8800015 	stw	r2,0(sp)
   21128:	200f883a 	mov	r7,r4
   2112c:	018000f4 	movhi	r6,3
   21130:	31942904 	addi	r6,r6,20644
   21134:	014000f4 	movhi	r5,3
   21138:	29542004 	addi	r5,r5,20608
   2113c:	1809883a 	mov	r4,r3
   21140:	00204940 	call	20494 <HIL_display_results>

	g_main_count++;
   21144:	d0a34117 	ldw	r2,-29436(gp)
   21148:	10800044 	addi	r2,r2,1
   2114c:	d0a34115 	stw	r2,-29436(gp)
	if (g_main_count == 120) g_hil_finish = 1;
   21150:	d0a34117 	ldw	r2,-29436(gp)
   21154:	10801e18 	cmpnei	r2,r2,120
   21158:	1000031e 	bne	r2,zero,21168 <state_RUN+0x8c>
   2115c:	00800044 	movi	r2,1
   21160:	d0a34215 	stw	r2,-29432(gp)
   21164:	00000106 	br	2116c <state_RUN+0x90>
	else g_hil_finish = 0;
   21168:	d0234215 	stw	zero,-29432(gp)

	//delay_msec(400);
	g_mutex_hil = 0;
   2116c:	d0234b15 	stw	zero,-29396(gp)

	}
	//------------------------------------------------
	// Next State determination
	//------------------------------------------------
	read_data_stack();
   21170:	00212f00 	call	212f0 <read_data_stack>
	int cmd_enax = strcmp(cmd_buffer, "put ena");
   21174:	d0a34417 	ldw	r2,-29424(gp)
   21178:	014000f4 	movhi	r5,3
   2117c:	294a3a04 	addi	r5,r5,10472
   21180:	1009883a 	mov	r4,r2
   21184:	00255440 	call	25544 <strcmp>
   21188:	e0bfff15 	stw	r2,-4(fp)

	if (g_hil_finish){
   2118c:	d0a34217 	ldw	r2,-29432(gp)
   21190:	10000726 	beq	r2,zero,211b0 <state_RUN+0xd4>
		printf("SIMULATION::END\r\n");
   21194:	010000f4 	movhi	r4,3
   21198:	210a5f04 	addi	r4,r4,10620
   2119c:	00255340 	call	25534 <puts>
		state = state_ENA;
   211a0:	008000b4 	movhi	r2,2
   211a4:	10838f04 	addi	r2,r2,3644
   211a8:	d0a00015 	stw	r2,-32768(gp)
		state = state_ENA;
		clear_dma();
	} else {
		state = state_RUN;
	}
}
   211ac:	00000d06 	br	211e4 <state_RUN+0x108>
	else if (!cmd_enax) {
   211b0:	e0bfff17 	ldw	r2,-4(fp)
   211b4:	1000081e 	bne	r2,zero,211d8 <state_RUN+0xfc>
		printf("\r\n*** Vectoring -> state_ENA ...\r\n\r\n");
   211b8:	010000f4 	movhi	r4,3
   211bc:	210a6404 	addi	r4,r4,10640
   211c0:	00255340 	call	25534 <puts>
		state = state_ENA;
   211c4:	008000b4 	movhi	r2,2
   211c8:	10838f04 	addi	r2,r2,3644
   211cc:	d0a00015 	stw	r2,-32768(gp)
		clear_dma();
   211d0:	00216e00 	call	216e0 <clear_dma>
}
   211d4:	00000306 	br	211e4 <state_RUN+0x108>
		state = state_RUN;
   211d8:	008000b4 	movhi	r2,2
   211dc:	10843704 	addi	r2,r2,4316
   211e0:	d0a00015 	stw	r2,-32768(gp)
}
   211e4:	0001883a 	nop
   211e8:	e037883a 	mov	sp,fp
   211ec:	dfc00117 	ldw	ra,4(sp)
   211f0:	df000017 	ldw	fp,0(sp)
   211f4:	dec00204 	addi	sp,sp,8
   211f8:	f800283a 	ret

000211fc <main>:

///==============================================
///  Main Loop for Stabiliti-Q
///==============================================

int main() {
   211fc:	defffe04 	addi	sp,sp,-8
   21200:	dfc00115 	stw	ra,4(sp)
   21204:	df000015 	stw	fp,0(sp)
   21208:	d839883a 	mov	fp,sp
	while (1) {
		(*state)();
   2120c:	d0a00017 	ldw	r2,-32768(gp)
   21210:	103ee83a 	callr	r2
   21214:	003ffd06 	br	2120c <main+0x10>

00021218 <substring>:



char rx_buffer[11];

void substring(char s[], char sub[], int p, int len) {
   21218:	defffa04 	addi	sp,sp,-24
   2121c:	df000515 	stw	fp,20(sp)
   21220:	df000504 	addi	fp,sp,20
   21224:	e13ffe15 	stw	r4,-8(fp)
   21228:	e17ffd15 	stw	r5,-12(fp)
   2122c:	e1bffc15 	stw	r6,-16(fp)
   21230:	e1fffb15 	stw	r7,-20(fp)
   int j = 0;
   21234:	e03fff15 	stw	zero,-4(fp)

   while (j < len) {
   21238:	00000e06 	br	21274 <substring+0x5c>
      sub[j] = s[p+j];
   2123c:	e0fffc17 	ldw	r3,-16(fp)
   21240:	e0bfff17 	ldw	r2,-4(fp)
   21244:	1885883a 	add	r2,r3,r2
   21248:	1007883a 	mov	r3,r2
   2124c:	e0bffe17 	ldw	r2,-8(fp)
   21250:	10c7883a 	add	r3,r2,r3
   21254:	e0bfff17 	ldw	r2,-4(fp)
   21258:	e13ffd17 	ldw	r4,-12(fp)
   2125c:	2085883a 	add	r2,r4,r2
   21260:	18c00003 	ldbu	r3,0(r3)
   21264:	10c00005 	stb	r3,0(r2)
      j++;
   21268:	e0bfff17 	ldw	r2,-4(fp)
   2126c:	10800044 	addi	r2,r2,1
   21270:	e0bfff15 	stw	r2,-4(fp)
   while (j < len) {
   21274:	e0ffff17 	ldw	r3,-4(fp)
   21278:	e0bffb17 	ldw	r2,-20(fp)
   2127c:	18bfef16 	blt	r3,r2,2123c <substring+0x24>
   }
   //sub[c] = '\0';
}
   21280:	0001883a 	nop
   21284:	0001883a 	nop
   21288:	e037883a 	mov	sp,fp
   2128c:	df000017 	ldw	fp,0(sp)
   21290:	dec00104 	addi	sp,sp,4
   21294:	f800283a 	ret

00021298 <clear_terminal_handler>:

void clear_terminal_handler(){
   21298:	defffd04 	addi	sp,sp,-12
   2129c:	dfc00215 	stw	ra,8(sp)
   212a0:	df000115 	stw	fp,4(sp)
   212a4:	df000104 	addi	fp,sp,4
	int put_clear = strcmp(cmd_buffer, "cls all");
   212a8:	d0a34417 	ldw	r2,-29424(gp)
   212ac:	014000f4 	movhi	r5,3
   212b0:	294a6d04 	addi	r5,r5,10676
   212b4:	1009883a 	mov	r4,r2
   212b8:	00255440 	call	25544 <strcmp>
   212bc:	e0bfff15 	stw	r2,-4(fp)
	if (!put_clear) {
   212c0:	e0bfff17 	ldw	r2,-4(fp)
   212c4:	1000041e 	bne	r2,zero,212d8 <clear_terminal_handler+0x40>
		clear_terminal();
   212c8:	002178c0 	call	2178c <clear_terminal>
		clear_dma();
   212cc:	00216e00 	call	216e0 <clear_dma>
		delay_msec(1);
   212d0:	01000044 	movi	r4,1
   212d4:	00217440 	call	21744 <delay_msec>
	}
}
   212d8:	0001883a 	nop
   212dc:	e037883a 	mov	sp,fp
   212e0:	dfc00117 	ldw	ra,4(sp)
   212e4:	df000017 	ldw	fp,0(sp)
   212e8:	dec00204 	addi	sp,sp,8
   212ec:	f800283a 	ret

000212f0 <read_data_stack>:




void read_data_stack() {
   212f0:	defffe04 	addi	sp,sp,-8
   212f4:	df000115 	stw	fp,4(sp)
   212f8:	df000104 	addi	fp,sp,4
//	substring(rx_buffer,cmd_bufferX,0,7);
//	substring(rx_buffer,value_bufferX,7,4);
//	cmd_buffer = cmd_bufferX;
//	value_buffer = value_bufferX;

	for (int k = 0; k < RX_BUFFER_SIZE; k++) {
   212fc:	e03fff15 	stw	zero,-4(fp)
   21300:	00001b06 	br	21370 <read_data_stack+0x80>
		rx_buff[k] = (char) IORD(DMA_RX_0_BASE, k);
   21304:	e0bfff17 	ldw	r2,-4(fp)
   21308:	100490ba 	slli	r2,r2,2
   2130c:	1007883a 	mov	r3,r2
   21310:	00800134 	movhi	r2,4
   21314:	10842004 	addi	r2,r2,4224
   21318:	1885883a 	add	r2,r3,r2
   2131c:	10800037 	ldwio	r2,0(r2)
   21320:	1009883a 	mov	r4,r2
   21324:	e0ffff17 	ldw	r3,-4(fp)
   21328:	d0a34c04 	addi	r2,gp,-29392
   2132c:	1885883a 	add	r2,r3,r2
   21330:	11000005 	stb	r4,0(r2)
		rx_buff[k] = (char) IORD(DMA_RX_0_BASE, k);
   21334:	e0bfff17 	ldw	r2,-4(fp)
   21338:	100490ba 	slli	r2,r2,2
   2133c:	1007883a 	mov	r3,r2
   21340:	00800134 	movhi	r2,4
   21344:	10842004 	addi	r2,r2,4224
   21348:	1885883a 	add	r2,r3,r2
   2134c:	10800037 	ldwio	r2,0(r2)
   21350:	1009883a 	mov	r4,r2
   21354:	e0ffff17 	ldw	r3,-4(fp)
   21358:	d0a34c04 	addi	r2,gp,-29392
   2135c:	1885883a 	add	r2,r3,r2
   21360:	11000005 	stb	r4,0(r2)
	for (int k = 0; k < RX_BUFFER_SIZE; k++) {
   21364:	e0bfff17 	ldw	r2,-4(fp)
   21368:	10800044 	addi	r2,r2,1
   2136c:	e0bfff15 	stw	r2,-4(fp)
   21370:	e0bfff17 	ldw	r2,-4(fp)
   21374:	108001d0 	cmplti	r2,r2,7
   21378:	103fe21e 	bne	r2,zero,21304 <read_data_stack+0x14>
	}
	cmd_buffer = rx_buff;
   2137c:	d0a34c04 	addi	r2,gp,-29392
   21380:	d0a34415 	stw	r2,-29424(gp)
//	for (int kk = CMD_STRLEN; kk < (CMD_STRLEN + RX_BUFFER_2_SIZE); kk++) {
//		rx_buff2[kk - CMD_STRLEN] = (char) IORD(DMA_RX_0_BASE, kk);
//		rx_buff2[kk - CMD_STRLEN] = (char) IORD(DMA_RX_0_BASE, kk);
//	}
//	value_buffer = rx_buff2;
	return;
   21384:	0001883a 	nop

}
   21388:	e037883a 	mov	sp,fp
   2138c:	df000017 	ldw	fp,0(sp)
   21390:	dec00104 	addi	sp,sp,4
   21394:	f800283a 	ret

00021398 <uart_print_buffer>:

void uart_print_buffer() {
   21398:	defffe04 	addi	sp,sp,-8
   2139c:	dfc00115 	stw	ra,4(sp)
   213a0:	df000015 	stw	fp,0(sp)
   213a4:	d839883a 	mov	fp,sp
	//printf("index \tRX_BUFF \tCMD_BUFF \r\n");
	//for (int i = 0; i < CMD_STRLEN; i++) {
		//printf("%d\t", i);
		//printf("%c \r\n", *(rx_buff + i));
	printf("cmd_buffer = %s\r\n", cmd_buffer);
   213a8:	d0a34417 	ldw	r2,-29424(gp)
   213ac:	100b883a 	mov	r5,r2
   213b0:	010000f4 	movhi	r4,3
   213b4:	210a6f04 	addi	r4,r4,10684
   213b8:	00254100 	call	25410 <printf>
	//printf("value_buffer = %s \r\n", value_buffer);
	//clear_dma();
	//}
	return;
   213bc:	0001883a 	nop
}
   213c0:	e037883a 	mov	sp,fp
   213c4:	dfc00117 	ldw	ra,4(sp)
   213c8:	df000017 	ldw	fp,0(sp)
   213cc:	dec00204 	addi	sp,sp,8
   213d0:	f800283a 	ret

000213d4 <get_version_handler>:


void get_version_handler() {
   213d4:	defffd04 	addi	sp,sp,-12
   213d8:	dfc00215 	stw	ra,8(sp)
   213dc:	df000115 	stw	fp,4(sp)
   213e0:	df000104 	addi	fp,sp,4
	int get_version = strcmp(cmd_buffer, GET_VER);
   213e4:	d0a34417 	ldw	r2,-29424(gp)
   213e8:	014000f4 	movhi	r5,3
   213ec:	294a7404 	addi	r5,r5,10704
   213f0:	1009883a 	mov	r4,r2
   213f4:	00255440 	call	25544 <strcmp>
   213f8:	e0bfff15 	stw	r2,-4(fp)
	if (!get_version) {
   213fc:	e0bfff17 	ldw	r2,-4(fp)
   21400:	1000041e 	bne	r2,zero,21414 <get_version_handler+0x40>
		//clear_terminal();
		display_Version(0);
   21404:	0009883a 	mov	r4,zero
   21408:	00214d80 	call	214d8 <display_Version>
		clear_dma();
   2140c:	00216e00 	call	216e0 <clear_dma>
	}
	return;
   21410:	0001883a 	nop
   21414:	0001883a 	nop
}
   21418:	e037883a 	mov	sp,fp
   2141c:	dfc00117 	ldw	ra,4(sp)
   21420:	df000017 	ldw	fp,0(sp)
   21424:	dec00204 	addi	sp,sp,8
   21428:	f800283a 	ret

0002142c <get_menu_handler>:

void get_menu_handler() {
   2142c:	defffd04 	addi	sp,sp,-12
   21430:	dfc00215 	stw	ra,8(sp)
   21434:	df000115 	stw	fp,4(sp)
   21438:	df000104 	addi	fp,sp,4
	int get_cmd = strcmp(cmd_buffer, GET_CMD);
   2143c:	d0a34417 	ldw	r2,-29424(gp)
   21440:	014000f4 	movhi	r5,3
   21444:	294a7604 	addi	r5,r5,10712
   21448:	1009883a 	mov	r4,r2
   2144c:	00255440 	call	25544 <strcmp>
   21450:	e0bfff15 	stw	r2,-4(fp)
	if (!get_cmd) {
   21454:	e0bfff17 	ldw	r2,-4(fp)
   21458:	1000041e 	bne	r2,zero,2146c <get_menu_handler+0x40>
		//clear_terminal();
		display_Menu(0);
   2145c:	0009883a 	mov	r4,zero
   21460:	00215d40 	call	215d4 <display_Menu>
		clear_dma();
   21464:	00216e00 	call	216e0 <clear_dma>
	}
	return;
   21468:	0001883a 	nop
   2146c:	0001883a 	nop
}
   21470:	e037883a 	mov	sp,fp
   21474:	dfc00117 	ldw	ra,4(sp)
   21478:	df000017 	ldw	fp,0(sp)
   2147c:	dec00204 	addi	sp,sp,8
   21480:	f800283a 	ret

00021484 <display_welcome_message>:

void display_welcome_message() {
   21484:	defffe04 	addi	sp,sp,-8
   21488:	dfc00115 	stw	ra,4(sp)
   2148c:	df000015 	stw	fp,0(sp)
   21490:	d839883a 	mov	fp,sp
	printf("****************************************\r\n");
   21494:	010000f4 	movhi	r4,3
   21498:	210a7804 	addi	r4,r4,10720
   2149c:	00255340 	call	25534 <puts>
	printf("**** Welcome to Stabiliti-Q Program ****\r\n");
   214a0:	010000f4 	movhi	r4,3
   214a4:	210a8304 	addi	r4,r4,10764
   214a8:	00255340 	call	25534 <puts>
	printf("****************************************\r\n");
   214ac:	010000f4 	movhi	r4,3
   214b0:	210a7804 	addi	r4,r4,10720
   214b4:	00255340 	call	25534 <puts>
	delay_msec(100);                    // pause for banner
   214b8:	01001904 	movi	r4,100
   214bc:	00217440 	call	21744 <delay_msec>
}
   214c0:	0001883a 	nop
   214c4:	e037883a 	mov	sp,fp
   214c8:	dfc00117 	ldw	ra,4(sp)
   214cc:	df000017 	ldw	fp,0(sp)
   214d0:	dec00204 	addi	sp,sp,8
   214d4:	f800283a 	ret

000214d8 <display_Version>:

void display_Version(int complete) {
   214d8:	defffd04 	addi	sp,sp,-12
   214dc:	dfc00215 	stw	ra,8(sp)
   214e0:	df000115 	stw	fp,4(sp)
   214e4:	df000104 	addi	fp,sp,4
   214e8:	e13fff15 	stw	r4,-4(fp)
	printf("\r\n");
   214ec:	010000f4 	movhi	r4,3
   214f0:	210a8e04 	addi	r4,r4,10808
   214f4:	00255340 	call	25534 <puts>
	printf("  ************************************\r\n");
   214f8:	010000f4 	movhi	r4,3
   214fc:	210a8f04 	addi	r4,r4,10812
   21500:	00255340 	call	25534 <puts>
	printf("  *    CET FPGA Diagnostics Program  *\r\n");
   21504:	010000f4 	movhi	r4,3
   21508:	210a9904 	addi	r4,r4,10852
   2150c:	00255340 	call	25534 <puts>
	printf("  *    REL  Version : %s           *\r\n", VERSION_REL);
   21510:	014000f4 	movhi	r5,3
   21514:	294aa304 	addi	r5,r5,10892
   21518:	010000f4 	movhi	r4,3
   2151c:	210aa504 	addi	r4,r4,10900
   21520:	00254100 	call	25410 <printf>
	printf("  *    SW   Version : %s           *\r\n", VERSION_SW);
   21524:	014000f4 	movhi	r5,3
   21528:	294aaf04 	addi	r5,r5,10940
   2152c:	010000f4 	movhi	r4,3
   21530:	210ab104 	addi	r4,r4,10948
   21534:	00254100 	call	25410 <printf>
	printf("  *    FPGA Version : %s           *\r\n", VERSION_HW);
   21538:	014000f4 	movhi	r5,3
   2153c:	294abb04 	addi	r5,r5,10988
   21540:	010000f4 	movhi	r4,3
   21544:	210abd04 	addi	r4,r4,10996
   21548:	00254100 	call	25410 <printf>
	printf("  *    DATE Revised : %s    *\r\n", VERSION_DATE);
   2154c:	014000f4 	movhi	r5,3
   21550:	294ac704 	addi	r5,r5,11036
   21554:	010000f4 	movhi	r4,3
   21558:	210aca04 	addi	r4,r4,11048
   2155c:	00254100 	call	25410 <printf>
	printf("  *    %s                 *\r\n", VERSION_MANUF_PARTNUM);
   21560:	014000f4 	movhi	r5,3
   21564:	294ad204 	addi	r5,r5,11080
   21568:	010000f4 	movhi	r4,3
   2156c:	210ad604 	addi	r4,r4,11096
   21570:	00254100 	call	25410 <printf>
	if (complete) {
   21574:	e0bfff17 	ldw	r2,-4(fp)
   21578:	10000a26 	beq	r2,zero,215a4 <display_Version+0xcc>
		printf("  *    Design and Manufactured       *\r\n");
   2157c:	010000f4 	movhi	r4,3
   21580:	210ade04 	addi	r4,r4,11128
   21584:	00255340 	call	25534 <puts>
		printf("  *    UNITED STATES of AMERICA      *\r\n");
   21588:	010000f4 	movhi	r4,3
   2158c:	210ae804 	addi	r4,r4,11168
   21590:	00255340 	call	25534 <puts>
		printf("  ************************************\r\n");
   21594:	010000f4 	movhi	r4,3
   21598:	210a8f04 	addi	r4,r4,10812
   2159c:	00255340 	call	25534 <puts>
   215a0:	00000306 	br	215b0 <display_Version+0xd8>
	} else {
		printf("  ************************************\r\n");
   215a4:	010000f4 	movhi	r4,3
   215a8:	210a8f04 	addi	r4,r4,10812
   215ac:	00255340 	call	25534 <puts>
	}
	printf("\r\n");
   215b0:	010000f4 	movhi	r4,3
   215b4:	210a8e04 	addi	r4,r4,10808
   215b8:	00255340 	call	25534 <puts>

}
   215bc:	0001883a 	nop
   215c0:	e037883a 	mov	sp,fp
   215c4:	dfc00117 	ldw	ra,4(sp)
   215c8:	df000017 	ldw	fp,0(sp)
   215cc:	dec00204 	addi	sp,sp,8
   215d0:	f800283a 	ret

000215d4 <display_Menu>:

void display_Menu(int clear){
   215d4:	defffd04 	addi	sp,sp,-12
   215d8:	dfc00215 	stw	ra,8(sp)
   215dc:	df000115 	stw	fp,4(sp)
   215e0:	df000104 	addi	fp,sp,4
   215e4:	e13fff15 	stw	r4,-4(fp)
	if (clear){
   215e8:	e0bfff17 	ldw	r2,-4(fp)
   215ec:	10000126 	beq	r2,zero,215f4 <display_Menu+0x20>
	clear_terminal();
   215f0:	002178c0 	call	2178c <clear_terminal>
	}
	printf("\r\n");
   215f4:	010000f4 	movhi	r4,3
   215f8:	210a8e04 	addi	r4,r4,10808
   215fc:	00255340 	call	25534 <puts>
	printf("  -------------------------------------------\r\n");
   21600:	010000f4 	movhi	r4,3
   21604:	210af204 	addi	r4,r4,11208
   21608:	00255340 	call	25534 <puts>
	printf("  CE+T Controller Interface \r\n");
   2160c:	010000f4 	movhi	r4,3
   21610:	210afe04 	addi	r4,r4,11256
   21614:	00255340 	call	25534 <puts>
	printf("  CMD        Description \r\n");
   21618:	010000f4 	movhi	r4,3
   2161c:	210b0604 	addi	r4,r4,11288
   21620:	00255340 	call	25534 <puts>
	printf("  -------------------------------------------\r\n");
   21624:	010000f4 	movhi	r4,3
   21628:	210af204 	addi	r4,r4,11208
   2162c:	00255340 	call	25534 <puts>
	printf("  cls all    Clear this terminal window.\r\n");
   21630:	010000f4 	movhi	r4,3
   21634:	210b0d04 	addi	r4,r4,11316
   21638:	00255340 	call	25534 <puts>
	printf("  get cmd    Get the CMD menu as displayed here.\r\n");
   2163c:	010000f4 	movhi	r4,3
   21640:	210b1804 	addi	r4,r4,11360
   21644:	00255340 	call	25534 <puts>
	printf("  get ver    Get the VERsion message.\r\n");
   21648:	010000f4 	movhi	r4,3
   2164c:	210b2504 	addi	r4,r4,11412
   21650:	00255340 	call	25534 <puts>
	printf("  put ena    Put the fsm into ENA state.\r\n");
   21654:	010000f4 	movhi	r4,3
   21658:	210b2f04 	addi	r4,r4,11452
   2165c:	00255340 	call	25534 <puts>
	printf("  put run    Put the fsm into RUN state.\r\n");
   21660:	010000f4 	movhi	r4,3
   21664:	210b3a04 	addi	r4,r4,11496
   21668:	00255340 	call	25534 <puts>
	printf("  put rst    Put ReSeT, reset the HIL data.\r\n");
   2166c:	010000f4 	movhi	r4,3
   21670:	210b4504 	addi	r4,r4,11540
   21674:	00255340 	call	25534 <puts>
	printf("  freq 01    General test Freq Decrease.\r\n");
   21678:	010000f4 	movhi	r4,3
   2167c:	210b5104 	addi	r4,r4,11588
   21680:	00255340 	call	25534 <puts>
	printf("  freq 02    General test Freq Decrease to MAX POWER.\r\n");
   21684:	010000f4 	movhi	r4,3
   21688:	210b5c04 	addi	r4,r4,11632
   2168c:	00255340 	call	25534 <puts>
	printf("  freq 03    General test Freq Increase.\r\n");
   21690:	010000f4 	movhi	r4,3
   21694:	210b6a04 	addi	r4,r4,11688
   21698:	00255340 	call	25534 <puts>
	printf("  freq 04    General test Freq Increase to MIN POWER.\r\n");
   2169c:	010000f4 	movhi	r4,3
   216a0:	210b7504 	addi	r4,r4,11732
   216a4:	00255340 	call	25534 <puts>
	printf("\r\n");
   216a8:	010000f4 	movhi	r4,3
   216ac:	210a8e04 	addi	r4,r4,10808
   216b0:	00255340 	call	25534 <puts>
	delay_msec(5);
   216b4:	01000144 	movi	r4,5
   216b8:	00217440 	call	21744 <delay_msec>
	printf("\t*** Now ready to accept commands.\r\n");
   216bc:	010000f4 	movhi	r4,3
   216c0:	210b8304 	addi	r4,r4,11788
   216c4:	00255340 	call	25534 <puts>
};
   216c8:	0001883a 	nop
   216cc:	e037883a 	mov	sp,fp
   216d0:	dfc00117 	ldw	ra,4(sp)
   216d4:	df000017 	ldw	fp,0(sp)
   216d8:	dec00204 	addi	sp,sp,8
   216dc:	f800283a 	ret

000216e0 <clear_dma>:

void clear_dma(void) {
   216e0:	defffe04 	addi	sp,sp,-8
   216e4:	df000115 	stw	fp,4(sp)
   216e8:	df000104 	addi	fp,sp,4
	for (int k = 0; k < CMD_STRLEN + RX_BUFFER_2_SIZE; k++)
   216ec:	e03fff15 	stw	zero,-4(fp)
   216f0:	00000b06 	br	21720 <clear_dma+0x40>
		IOWR(DMA_RX_0_BASE, k, 0);
   216f4:	e0bfff17 	ldw	r2,-4(fp)
   216f8:	100490ba 	slli	r2,r2,2
   216fc:	1007883a 	mov	r3,r2
   21700:	00800134 	movhi	r2,4
   21704:	10842004 	addi	r2,r2,4224
   21708:	1885883a 	add	r2,r3,r2
   2170c:	0007883a 	mov	r3,zero
   21710:	10c00035 	stwio	r3,0(r2)
	for (int k = 0; k < CMD_STRLEN + RX_BUFFER_2_SIZE; k++)
   21714:	e0bfff17 	ldw	r2,-4(fp)
   21718:	10800044 	addi	r2,r2,1
   2171c:	e0bfff15 	stw	r2,-4(fp)
   21720:	e0bfff17 	ldw	r2,-4(fp)
   21724:	108002d0 	cmplti	r2,r2,11
   21728:	103ff21e 	bne	r2,zero,216f4 <clear_dma+0x14>
}
   2172c:	0001883a 	nop
   21730:	0001883a 	nop
   21734:	e037883a 	mov	sp,fp
   21738:	df000017 	ldw	fp,0(sp)
   2173c:	dec00104 	addi	sp,sp,4
   21740:	f800283a 	ret

00021744 <delay_msec>:

void delay_msec(int msec) {
   21744:	defffc04 	addi	sp,sp,-16
   21748:	dfc00315 	stw	ra,12(sp)
   2174c:	df000215 	stw	fp,8(sp)
   21750:	df000204 	addi	fp,sp,8
   21754:	e13ffe15 	stw	r4,-8(fp)
	int local_time = 1000 * msec;
   21758:	0140fa04 	movi	r5,1000
   2175c:	e13ffe17 	ldw	r4,-8(fp)
   21760:	0022c7c0 	call	22c7c <__mulsi3>
   21764:	e0bfff15 	stw	r2,-4(fp)
	usleep(local_time);
   21768:	e0bfff17 	ldw	r2,-4(fp)
   2176c:	1009883a 	mov	r4,r2
   21770:	0030b6c0 	call	30b6c <usleep>
}
   21774:	0001883a 	nop
   21778:	e037883a 	mov	sp,fp
   2177c:	dfc00117 	ldw	ra,4(sp)
   21780:	df000017 	ldw	fp,0(sp)
   21784:	dec00204 	addi	sp,sp,8
   21788:	f800283a 	ret

0002178c <clear_terminal>:

void clear_terminal(){
   2178c:	defffe04 	addi	sp,sp,-8
   21790:	dfc00115 	stw	ra,4(sp)
   21794:	df000015 	stw	fp,0(sp)
   21798:	d839883a 	mov	fp,sp
	printf("\033c");
   2179c:	010000f4 	movhi	r4,3
   217a0:	210b8c04 	addi	r4,r4,11824
   217a4:	00254100 	call	25410 <printf>
	printf("\r\n");
   217a8:	010000f4 	movhi	r4,3
   217ac:	210a8e04 	addi	r4,r4,10808
   217b0:	00255340 	call	25534 <puts>
	delay_msec(500);  // pause before displaying banner
   217b4:	01007d04 	movi	r4,500
   217b8:	00217440 	call	21744 <delay_msec>
}
   217bc:	0001883a 	nop
   217c0:	e037883a 	mov	sp,fp
   217c4:	dfc00117 	ldw	ra,4(sp)
   217c8:	df000017 	ldw	fp,0(sp)
   217cc:	dec00204 	addi	sp,sp,8
   217d0:	f800283a 	ret

000217d4 <print_mode>:

void print_mode(int gMode){
   217d4:	defffd04 	addi	sp,sp,-12
   217d8:	dfc00215 	stw	ra,8(sp)
   217dc:	df000115 	stw	fp,4(sp)
   217e0:	df000104 	addi	fp,sp,4
   217e4:	e13fff15 	stw	r4,-4(fp)
   217e8:	e0bfff17 	ldw	r2,-4(fp)
   217ec:	108001e8 	cmpgeui	r2,r2,7
   217f0:	1000291e 	bne	r2,zero,21898 <print_mode+0xc4>
   217f4:	e0bfff17 	ldw	r2,-4(fp)
   217f8:	100690ba 	slli	r3,r2,2
   217fc:	008000b4 	movhi	r2,2
   21800:	1885883a 	add	r2,r3,r2
   21804:	10860317 	ldw	r2,6156(r2)
   21808:	1000683a 	jmp	r2
   2180c:	00021828 	cmpgeui	zero,zero,2144
   21810:	00021848 	cmpgei	zero,zero,2145
   21814:	00021838 	rdprs	zero,zero,2144
   21818:	00021858 	cmpnei	zero,zero,2145
   2181c:	00021868 	cmpgeui	zero,zero,2145
   21820:	00021878 	rdprs	zero,zero,2145
   21824:	00021888 	cmpgei	zero,zero,2146
	switch (gMode)
	{
	case Volt_Watt : {
		printf("**** Mode is Volt-Watt.\r\n");
   21828:	010000f4 	movhi	r4,3
   2182c:	210b8d04 	addi	r4,r4,11828
   21830:	00255340 	call	25534 <puts>
		break;
   21834:	00001806 	br	21898 <print_mode+0xc4>
	}
	case Volt_Watt_Var : {
		printf("**** Mode is Volt-Var and Volt-Watt.\r\n");
   21838:	010000f4 	movhi	r4,3
   2183c:	210b9404 	addi	r4,r4,11856
   21840:	00255340 	call	25534 <puts>
		break;
   21844:	00001406 	br	21898 <print_mode+0xc4>
	}
	case Volt_Watt_Multimode : {
		printf("**** Mode is Volt-Watt Multimode.\r\n");
   21848:	010000f4 	movhi	r4,3
   2184c:	210b9e04 	addi	r4,r4,11896
   21850:	00255340 	call	25534 <puts>
		break;
   21854:	00001006 	br	21898 <print_mode+0xc4>
	}
	case Power_Factor : {
		printf("**** Mode is Power Factor.\r\n");
   21858:	010000f4 	movhi	r4,3
   2185c:	210ba704 	addi	r4,r4,11932
   21860:	00255340 	call	25534 <puts>
		break;
   21864:	00000c06 	br	21898 <print_mode+0xc4>
	}
	case Var : {
		printf("**** Mode is Var.\r\n");
   21868:	010000f4 	movhi	r4,3
   2186c:	210bae04 	addi	r4,r4,11960
   21870:	00255340 	call	25534 <puts>
		break;
   21874:	00000806 	br	21898 <print_mode+0xc4>
	}
	case Freq : {
		printf("**** Mode is Frequency.\r\n");
   21878:	010000f4 	movhi	r4,3
   2187c:	210bb304 	addi	r4,r4,11980
   21880:	00255340 	call	25534 <puts>
		break;
   21884:	00000406 	br	21898 <print_mode+0xc4>
	}
	case Freq_Multimode : {
		printf("**** Mode is Frequency-Multimode. \r\n");
   21888:	010000f4 	movhi	r4,3
   2188c:	210bba04 	addi	r4,r4,12008
   21890:	00255340 	call	25534 <puts>
		break;
   21894:	0001883a 	nop
	}
	}
}
   21898:	0001883a 	nop
   2189c:	e037883a 	mov	sp,fp
   218a0:	dfc00117 	ldw	ra,4(sp)
   218a4:	df000017 	ldw	fp,0(sp)
   218a8:	dec00204 	addi	sp,sp,8
   218ac:	f800283a 	ret

000218b0 <run_simple_test_sequence>:

void run_simple_test_sequence(){
   218b0:	defffd04 	addi	sp,sp,-12
   218b4:	dfc00215 	stw	ra,8(sp)
   218b8:	df000115 	stw	fp,4(sp)
   218bc:	df000104 	addi	fp,sp,4
	printf("\r\n*** Starting simple test sequence\r\n\r\n");
   218c0:	010000f4 	movhi	r4,3
   218c4:	210bc304 	addi	r4,r4,12044
   218c8:	00255340 	call	25534 <puts>
	printf("\t");
   218cc:	01000244 	movi	r4,9
   218d0:	00254500 	call	25450 <putchar>
	for (int j=0; j<10;j++){
   218d4:	e03fff15 	stw	zero,-4(fp)
   218d8:	00000f06 	br	21918 <run_simple_test_sequence+0x68>
			if (j % 2 )
   218dc:	e0bfff17 	ldw	r2,-4(fp)
   218e0:	1080004c 	andi	r2,r2,1
   218e4:	10000426 	beq	r2,zero,218f8 <run_simple_test_sequence+0x48>
			printf("|/");
   218e8:	010000f4 	movhi	r4,3
   218ec:	210bcd04 	addi	r4,r4,12084
   218f0:	00254100 	call	25410 <printf>
   218f4:	00000306 	br	21904 <run_simple_test_sequence+0x54>
			else
				printf("\\|");
   218f8:	010000f4 	movhi	r4,3
   218fc:	210bce04 	addi	r4,r4,12088
   21900:	00254100 	call	25410 <printf>
		delay_msec(100);
   21904:	01001904 	movi	r4,100
   21908:	00217440 	call	21744 <delay_msec>
	for (int j=0; j<10;j++){
   2190c:	e0bfff17 	ldw	r2,-4(fp)
   21910:	10800044 	addi	r2,r2,1
   21914:	e0bfff15 	stw	r2,-4(fp)
   21918:	e0bfff17 	ldw	r2,-4(fp)
   2191c:	10800290 	cmplti	r2,r2,10
   21920:	103fee1e 	bne	r2,zero,218dc <run_simple_test_sequence+0x2c>
	}
	printf("\r\n\r\n*** Test sequence success.\r\n\n");
   21924:	010000f4 	movhi	r4,3
   21928:	210bcf04 	addi	r4,r4,12092
   2192c:	00255340 	call	25534 <puts>
	delay_msec(1000);
   21930:	0100fa04 	movi	r4,1000
   21934:	00217440 	call	21744 <delay_msec>
}
   21938:	0001883a 	nop
   2193c:	e037883a 	mov	sp,fp
   21940:	dfc00117 	ldw	ra,4(sp)
   21944:	df000017 	ldw	fp,0(sp)
   21948:	dec00204 	addi	sp,sp,8
   2194c:	f800283a 	ret

00021950 <enable_timer_sec>:


extern int g_sec_counter; /// Global Int, seconds counter
extern int g_sec_enable;  /// Global Int, seconds counter enable

void enable_timer_sec() {
   21950:	deffff04 	addi	sp,sp,-4
   21954:	df000015 	stw	fp,0(sp)
   21958:	d839883a 	mov	fp,sp
	g_sec_enable = 1;
   2195c:	00800044 	movi	r2,1
   21960:	d0a34915 	stw	r2,-29404(gp)
}
   21964:	0001883a 	nop
   21968:	e037883a 	mov	sp,fp
   2196c:	df000017 	ldw	fp,0(sp)
   21970:	dec00104 	addi	sp,sp,4
   21974:	f800283a 	ret

00021978 <reset_timer_sec>:

void reset_timer_sec() {
   21978:	deffff04 	addi	sp,sp,-4
   2197c:	df000015 	stw	fp,0(sp)
   21980:	d839883a 	mov	fp,sp
	g_sec_counter = 0;
   21984:	d0234815 	stw	zero,-29408(gp)
	g_sec_enable = 0;
   21988:	d0234915 	stw	zero,-29404(gp)
}
   2198c:	0001883a 	nop
   21990:	e037883a 	mov	sp,fp
   21994:	df000017 	ldw	fp,0(sp)
   21998:	dec00104 	addi	sp,sp,4
   2199c:	f800283a 	ret

000219a0 <increment_power>:


double increment_power(double power_latched, double sampled_data_freq) {
   219a0:	defff804 	addi	sp,sp,-32
   219a4:	dfc00715 	stw	ra,28(sp)
   219a8:	df000615 	stw	fp,24(sp)
   219ac:	dc400515 	stw	r17,20(sp)
   219b0:	dc000415 	stw	r16,16(sp)
   219b4:	df000604 	addi	fp,sp,24
   219b8:	e13ffc15 	stw	r4,-16(fp)
   219bc:	e17ffd15 	stw	r5,-12(fp)
   219c0:	e1bffa15 	stw	r6,-24(fp)
   219c4:	e1fffb15 	stw	r7,-20(fp)

	return power_latched + ((P_MAX - power_latched)* ((F_LLCO - sampled_data_freq) / (F_LLCO - F_PMAX)));
   219c8:	e1bffc17 	ldw	r6,-16(fp)
   219cc:	e1fffd17 	ldw	r7,-12(fp)
   219d0:	0009883a 	mov	r4,zero
   219d4:	01503774 	movhi	r5,16605
   219d8:	29530004 	addi	r5,r5,19456
   219dc:	00248400 	call	24840 <__subdf3>
   219e0:	1009883a 	mov	r4,r2
   219e4:	180b883a 	mov	r5,r3
   219e8:	2021883a 	mov	r16,r4
   219ec:	2823883a 	mov	r17,r5
   219f0:	e1bffa17 	ldw	r6,-24(fp)
   219f4:	e1fffb17 	ldw	r7,-20(fp)
   219f8:	0009883a 	mov	r4,zero
   219fc:	01501274 	movhi	r5,16457
   21a00:	29780004 	addi	r5,r5,-8192
   21a04:	00248400 	call	24840 <__subdf3>
   21a08:	1009883a 	mov	r4,r2
   21a0c:	180b883a 	mov	r5,r3
   21a10:	2005883a 	mov	r2,r4
   21a14:	2807883a 	mov	r3,r5
   21a18:	000d883a 	mov	r6,zero
   21a1c:	01cfff34 	movhi	r7,16380
   21a20:	1009883a 	mov	r4,r2
   21a24:	180b883a 	mov	r5,r3
   21a28:	00235940 	call	23594 <__divdf3>
   21a2c:	1009883a 	mov	r4,r2
   21a30:	180b883a 	mov	r5,r3
   21a34:	2005883a 	mov	r2,r4
   21a38:	2807883a 	mov	r3,r5
   21a3c:	100d883a 	mov	r6,r2
   21a40:	180f883a 	mov	r7,r3
   21a44:	8009883a 	mov	r4,r16
   21a48:	880b883a 	mov	r5,r17
   21a4c:	00240940 	call	24094 <__muldf3>
   21a50:	1009883a 	mov	r4,r2
   21a54:	180b883a 	mov	r5,r3
   21a58:	2005883a 	mov	r2,r4
   21a5c:	2807883a 	mov	r3,r5
   21a60:	e1bffc17 	ldw	r6,-16(fp)
   21a64:	e1fffd17 	ldw	r7,-12(fp)
   21a68:	1009883a 	mov	r4,r2
   21a6c:	180b883a 	mov	r5,r3
   21a70:	0022ca40 	call	22ca4 <__adddf3>
   21a74:	1009883a 	mov	r4,r2
   21a78:	180b883a 	mov	r5,r3
   21a7c:	2005883a 	mov	r2,r4
   21a80:	2807883a 	mov	r3,r5
   21a84:	1009883a 	mov	r4,r2
   21a88:	180b883a 	mov	r5,r3
}
   21a8c:	2005883a 	mov	r2,r4
   21a90:	2807883a 	mov	r3,r5
   21a94:	e6fffe04 	addi	sp,fp,-8
   21a98:	dfc00317 	ldw	ra,12(sp)
   21a9c:	df000217 	ldw	fp,8(sp)
   21aa0:	dc400117 	ldw	r17,4(sp)
   21aa4:	dc000017 	ldw	r16,0(sp)
   21aa8:	dec00404 	addi	sp,sp,16
   21aac:	f800283a 	ret

00021ab0 <decrement_power>:

double decrement_power(double power_ref_latched, double sampled_data_freq) {
   21ab0:	defffa04 	addi	sp,sp,-24
   21ab4:	dfc00515 	stw	ra,20(sp)
   21ab8:	df000415 	stw	fp,16(sp)
   21abc:	df000404 	addi	fp,sp,16
   21ac0:	e13ffe15 	stw	r4,-8(fp)
   21ac4:	e17fff15 	stw	r5,-4(fp)
   21ac8:	e1bffc15 	stw	r6,-16(fp)
   21acc:	e1fffd15 	stw	r7,-12(fp)

	return power_ref_latched
			* (1 - ((sampled_data_freq - F_ULCO) / (F_PMIN - F_ULCO)));
   21ad0:	000d883a 	mov	r6,zero
   21ad4:	01d01274 	movhi	r7,16457
   21ad8:	39c80004 	addi	r7,r7,8192
   21adc:	e13ffc17 	ldw	r4,-16(fp)
   21ae0:	e17ffd17 	ldw	r5,-12(fp)
   21ae4:	00248400 	call	24840 <__subdf3>
   21ae8:	1009883a 	mov	r4,r2
   21aec:	180b883a 	mov	r5,r3
   21af0:	2005883a 	mov	r2,r4
   21af4:	2807883a 	mov	r3,r5
   21af8:	000d883a 	mov	r6,zero
   21afc:	01cfff34 	movhi	r7,16380
   21b00:	1009883a 	mov	r4,r2
   21b04:	180b883a 	mov	r5,r3
   21b08:	00235940 	call	23594 <__divdf3>
   21b0c:	1009883a 	mov	r4,r2
   21b10:	180b883a 	mov	r5,r3
   21b14:	2005883a 	mov	r2,r4
   21b18:	2807883a 	mov	r3,r5
   21b1c:	100d883a 	mov	r6,r2
   21b20:	180f883a 	mov	r7,r3
   21b24:	0009883a 	mov	r4,zero
   21b28:	014ffc34 	movhi	r5,16368
   21b2c:	00248400 	call	24840 <__subdf3>
   21b30:	1009883a 	mov	r4,r2
   21b34:	180b883a 	mov	r5,r3
   21b38:	2005883a 	mov	r2,r4
   21b3c:	2807883a 	mov	r3,r5
   21b40:	e1bffe17 	ldw	r6,-8(fp)
   21b44:	e1ffff17 	ldw	r7,-4(fp)
   21b48:	1009883a 	mov	r4,r2
   21b4c:	180b883a 	mov	r5,r3
   21b50:	00240940 	call	24094 <__muldf3>
   21b54:	1009883a 	mov	r4,r2
   21b58:	180b883a 	mov	r5,r3
   21b5c:	2005883a 	mov	r2,r4
   21b60:	2807883a 	mov	r3,r5
   21b64:	1009883a 	mov	r4,r2
   21b68:	180b883a 	mov	r5,r3
}
   21b6c:	2005883a 	mov	r2,r4
   21b70:	2807883a 	mov	r3,r5
   21b74:	e037883a 	mov	sp,fp
   21b78:	dfc00117 	ldw	ra,4(sp)
   21b7c:	df000017 	ldw	fp,0(sp)
   21b80:	dec00204 	addi	sp,sp,8
   21b84:	f800283a 	ret

00021b88 <frequency_response_update>:

void frequency_response_update(input_t *gInput, cmd_t *gCommand, int debug) {
   21b88:	deffe604 	addi	sp,sp,-104
   21b8c:	dfc01915 	stw	ra,100(sp)
   21b90:	df001815 	stw	fp,96(sp)
   21b94:	df001804 	addi	fp,sp,96
   21b98:	e13fea15 	stw	r4,-88(fp)
   21b9c:	e17fe915 	stw	r5,-92(fp)
   21ba0:	e1bfe815 	stw	r6,-96(fp)

	input_t sampled_data;
	sampled_data = *gInput;
   21ba4:	e0bfea17 	ldw	r2,-88(fp)
   21ba8:	10c00017 	ldw	r3,0(r2)
   21bac:	e0fff315 	stw	r3,-52(fp)
   21bb0:	10c00117 	ldw	r3,4(r2)
   21bb4:	e0fff415 	stw	r3,-48(fp)
   21bb8:	10c00217 	ldw	r3,8(r2)
   21bbc:	e0fff515 	stw	r3,-44(fp)
   21bc0:	10c00317 	ldw	r3,12(r2)
   21bc4:	e0fff615 	stw	r3,-40(fp)
   21bc8:	10c00417 	ldw	r3,16(r2)
   21bcc:	e0fff715 	stw	r3,-36(fp)
   21bd0:	10c00517 	ldw	r3,20(r2)
   21bd4:	e0fff815 	stw	r3,-32(fp)
   21bd8:	10c00617 	ldw	r3,24(r2)
   21bdc:	e0fff915 	stw	r3,-28(fp)
   21be0:	10c00717 	ldw	r3,28(r2)
   21be4:	e0fffa15 	stw	r3,-24(fp)
   21be8:	10800817 	ldw	r2,32(r2)
   21bec:	e0bffb15 	stw	r2,-20(fp)
	cmd_t cmd_value;
	cmd_value = *gCommand;
   21bf0:	e0bfe917 	ldw	r2,-92(fp)
   21bf4:	10c00017 	ldw	r3,0(r2)
   21bf8:	e0ffeb15 	stw	r3,-84(fp)
   21bfc:	10c00117 	ldw	r3,4(r2)
   21c00:	e0ffec15 	stw	r3,-80(fp)
   21c04:	10c00217 	ldw	r3,8(r2)
   21c08:	e0ffed15 	stw	r3,-76(fp)
   21c0c:	10c00317 	ldw	r3,12(r2)
   21c10:	e0ffee15 	stw	r3,-72(fp)
   21c14:	10c00417 	ldw	r3,16(r2)
   21c18:	e0ffef15 	stw	r3,-68(fp)
   21c1c:	10c00517 	ldw	r3,20(r2)
   21c20:	e0fff015 	stw	r3,-64(fp)
   21c24:	10c00617 	ldw	r3,24(r2)
   21c28:	e0fff115 	stw	r3,-60(fp)
   21c2c:	10800717 	ldw	r2,28(r2)
   21c30:	e0bff215 	stw	r2,-56(fp)
	static double power_ref_latched = 0;

	switch (ST_GENERAL) {
   21c34:	d0a33f17 	ldw	r2,-29444(gp)
   21c38:	10c00168 	cmpgeui	r3,r2,5
   21c3c:	18018d1e 	bne	r3,zero,22274 <frequency_response_update+0x6ec>
   21c40:	100690ba 	slli	r3,r2,2
   21c44:	008000b4 	movhi	r2,2
   21c48:	1885883a 	add	r2,r3,r2
   21c4c:	10871517 	ldw	r2,7252(r2)
   21c50:	1000683a 	jmp	r2
   21c54:	00021c68 	cmpgeui	zero,zero,2161
   21c58:	00021dc4 	movi	zero,2167
   21c5c:	00021f8c 	andi	zero,zero,2174
   21c60:	00022034 	movhi	zero,2176
   21c64:	000221e8 	cmpgeui	zero,zero,2183
	case (NOMINAL): {
		if (sampled_data.freq < F_LLCO) {
   21c68:	e0bff717 	ldw	r2,-36(fp)
   21c6c:	e0fff817 	ldw	r3,-32(fp)
   21c70:	000d883a 	mov	r6,zero
   21c74:	01d01274 	movhi	r7,16457
   21c78:	39f80004 	addi	r7,r7,-8192
   21c7c:	1009883a 	mov	r4,r2
   21c80:	180b883a 	mov	r5,r3
   21c84:	0023fac0 	call	23fac <__ledf2>
   21c88:	1000190e 	bge	r2,zero,21cf0 <frequency_response_update+0x168>
			ST_GENERAL = FREQ_FALLING;
   21c8c:	00800044 	movi	r2,1
   21c90:	d0a33f15 	stw	r2,-29444(gp)
			cmd_value.active_power_latched = sampled_data.real_power;
   21c94:	e0bffa17 	ldw	r2,-24(fp)
   21c98:	e0fffb17 	ldw	r3,-20(fp)
   21c9c:	e0bfed15 	stw	r2,-76(fp)
   21ca0:	e0ffee15 	stw	r3,-72(fp)
			power_ref_latched = sampled_data.real_power;
   21ca4:	e0bffa17 	ldw	r2,-24(fp)
   21ca8:	e0fffb17 	ldw	r3,-20(fp)
   21cac:	d0a34e15 	stw	r2,-29384(gp)
   21cb0:	d0e34f15 	stw	r3,-29380(gp)
			if (debug){
   21cb4:	e0bfe817 	ldw	r2,-96(fp)
   21cb8:	10000a26 	beq	r2,zero,21ce4 <frequency_response_update+0x15c>
			printf("** Transition to FREQ_FALLING\r\n");
   21cbc:	010000f4 	movhi	r4,3
   21cc0:	210bd804 	addi	r4,r4,12128
   21cc4:	00255340 	call	25534 <puts>
			printf("Latched power = %f\r\n", power_ref_latched);
   21cc8:	d0a34e17 	ldw	r2,-29384(gp)
   21ccc:	d0e34f17 	ldw	r3,-29380(gp)
   21cd0:	100b883a 	mov	r5,r2
   21cd4:	180d883a 	mov	r6,r3
   21cd8:	010000f4 	movhi	r4,3
   21cdc:	210be004 	addi	r4,r4,12160
   21ce0:	00254100 	call	25410 <printf>
			}
			g_max_power_reached = 0;
   21ce4:	d0233d15 	stw	zero,-29452(gp)
			g_min_power_reached = 0;
   21ce8:	d0233e15 	stw	zero,-29448(gp)
   21cec:	00002306 	br	21d7c <frequency_response_update+0x1f4>
		} else if (sampled_data.freq > F_ULCO) {
   21cf0:	e0bff717 	ldw	r2,-36(fp)
   21cf4:	e0fff817 	ldw	r3,-32(fp)
   21cf8:	000d883a 	mov	r6,zero
   21cfc:	01d01274 	movhi	r7,16457
   21d00:	39c80004 	addi	r7,r7,8192
   21d04:	1009883a 	mov	r4,r2
   21d08:	180b883a 	mov	r5,r3
   21d0c:	0023ec40 	call	23ec4 <__gedf2>
   21d10:	0080190e 	bge	zero,r2,21d78 <frequency_response_update+0x1f0>
			ST_GENERAL = FREQ_RISING;
   21d14:	008000c4 	movi	r2,3
   21d18:	d0a33f15 	stw	r2,-29444(gp)
			cmd_value.active_power_latched = sampled_data.real_power;
   21d1c:	e0bffa17 	ldw	r2,-24(fp)
   21d20:	e0fffb17 	ldw	r3,-20(fp)
   21d24:	e0bfed15 	stw	r2,-76(fp)
   21d28:	e0ffee15 	stw	r3,-72(fp)
			power_ref_latched = sampled_data.real_power;
   21d2c:	e0bffa17 	ldw	r2,-24(fp)
   21d30:	e0fffb17 	ldw	r3,-20(fp)
   21d34:	d0a34e15 	stw	r2,-29384(gp)
   21d38:	d0e34f15 	stw	r3,-29380(gp)
			g_max_power_reached = 0;
   21d3c:	d0233d15 	stw	zero,-29452(gp)
			g_min_power_reached = 0;
   21d40:	d0233e15 	stw	zero,-29448(gp)
			if (debug){
   21d44:	e0bfe817 	ldw	r2,-96(fp)
   21d48:	10000c26 	beq	r2,zero,21d7c <frequency_response_update+0x1f4>
				printf("** Transition to FREQ_RISING\r\n");
   21d4c:	010000f4 	movhi	r4,3
   21d50:	210be604 	addi	r4,r4,12184
   21d54:	00255340 	call	25534 <puts>
				printf("Latched power = %f\r\n", power_ref_latched);
   21d58:	d0a34e17 	ldw	r2,-29384(gp)
   21d5c:	d0e34f17 	ldw	r3,-29380(gp)
   21d60:	100b883a 	mov	r5,r2
   21d64:	180d883a 	mov	r6,r3
   21d68:	010000f4 	movhi	r4,3
   21d6c:	210be004 	addi	r4,r4,12160
   21d70:	00254100 	call	25410 <printf>
   21d74:	00000106 	br	21d7c <frequency_response_update+0x1f4>
			}
		} else {
			ST_GENERAL = NOMINAL;
   21d78:	d0233f15 	stw	zero,-29444(gp)

		}

		*gCommand = cmd_value;
   21d7c:	e0bfe917 	ldw	r2,-92(fp)
   21d80:	e0ffeb17 	ldw	r3,-84(fp)
   21d84:	10c00015 	stw	r3,0(r2)
   21d88:	e0ffec17 	ldw	r3,-80(fp)
   21d8c:	10c00115 	stw	r3,4(r2)
   21d90:	e0ffed17 	ldw	r3,-76(fp)
   21d94:	10c00215 	stw	r3,8(r2)
   21d98:	e0ffee17 	ldw	r3,-72(fp)
   21d9c:	10c00315 	stw	r3,12(r2)
   21da0:	e0ffef17 	ldw	r3,-68(fp)
   21da4:	10c00415 	stw	r3,16(r2)
   21da8:	e0fff017 	ldw	r3,-64(fp)
   21dac:	10c00515 	stw	r3,20(r2)
   21db0:	e0fff117 	ldw	r3,-60(fp)
   21db4:	10c00615 	stw	r3,24(r2)
   21db8:	e0fff217 	ldw	r3,-56(fp)
   21dbc:	10c00715 	stw	r3,28(r2)
		break;
   21dc0:	00012c06 	br	22274 <frequency_response_update+0x6ec>
	}
	case (FREQ_FALLING): {
		if (sampled_data.freq < F_PMAX) {
   21dc4:	e0bff717 	ldw	r2,-36(fp)
   21dc8:	e0fff817 	ldw	r3,-32(fp)
   21dcc:	000d883a 	mov	r6,zero
   21dd0:	01d01234 	movhi	r7,16456
   21dd4:	1009883a 	mov	r4,r2
   21dd8:	180b883a 	mov	r5,r3
   21ddc:	0023fac0 	call	23fac <__ledf2>
   21de0:	10000d0e 	bge	r2,zero,21e18 <frequency_response_update+0x290>
			ST_GENERAL = MAX_POWER;
   21de4:	00800084 	movi	r2,2
   21de8:	d0a33f15 	stw	r2,-29444(gp)
			reset_timer_sec();
   21dec:	00219780 	call	21978 <reset_timer_sec>
			cmd_value.active_power_max = P_MAX;
   21df0:	e03feb15 	stw	zero,-84(fp)
   21df4:	00903774 	movhi	r2,16605
   21df8:	10930004 	addi	r2,r2,19456
   21dfc:	e0bfec15 	stw	r2,-80(fp)
			if (debug) printf("** Transition to MAX_POWER\r\n");
   21e00:	e0bfe817 	ldw	r2,-96(fp)
   21e04:	10004f26 	beq	r2,zero,21f44 <frequency_response_update+0x3bc>
   21e08:	010000f4 	movhi	r4,3
   21e0c:	210bee04 	addi	r4,r4,12216
   21e10:	00255340 	call	25534 <puts>
   21e14:	00004b06 	br	21f44 <frequency_response_update+0x3bc>
		} else if (sampled_data.freq < (F_LLCO + F_HSYS)) {
   21e18:	e0bff717 	ldw	r2,-36(fp)
   21e1c:	e0fff817 	ldw	r3,-32(fp)
   21e20:	01b33374 	movhi	r6,52429
   21e24:	31b33344 	addi	r6,r6,-13107
   21e28:	01d01274 	movhi	r7,16457
   21e2c:	39fb3304 	addi	r7,r7,-4916
   21e30:	1009883a 	mov	r4,r2
   21e34:	180b883a 	mov	r5,r3
   21e38:	0023fac0 	call	23fac <__ledf2>
   21e3c:	1000220e 	bge	r2,zero,21ec8 <frequency_response_update+0x340>
			ST_GENERAL = FREQ_FALLING;
   21e40:	00800044 	movi	r2,1
   21e44:	d0a33f15 	stw	r2,-29444(gp)
			reset_timer_sec();
   21e48:	00219780 	call	21978 <reset_timer_sec>
			if (g_max_power_reached) {
   21e4c:	d0a33d17 	ldw	r2,-29452(gp)
   21e50:	10000526 	beq	r2,zero,21e68 <frequency_response_update+0x2e0>
				cmd_value.active_power_max = P_MAX;
   21e54:	e03feb15 	stw	zero,-84(fp)
   21e58:	00903774 	movhi	r2,16605
   21e5c:	10930004 	addi	r2,r2,19456
   21e60:	e0bfec15 	stw	r2,-80(fp)
   21e64:	00003706 	br	21f44 <frequency_response_update+0x3bc>
			} else {
				double power_value = increment_power(power_ref_latched,
   21e68:	d0a34e17 	ldw	r2,-29384(gp)
   21e6c:	d0e34f17 	ldw	r3,-29380(gp)
   21e70:	e13ff717 	ldw	r4,-36(fp)
   21e74:	e17ff817 	ldw	r5,-32(fp)
   21e78:	200d883a 	mov	r6,r4
   21e7c:	280f883a 	mov	r7,r5
   21e80:	1009883a 	mov	r4,r2
   21e84:	180b883a 	mov	r5,r3
   21e88:	00219a00 	call	219a0 <increment_power>
   21e8c:	e0bffc15 	stw	r2,-16(fp)
   21e90:	e0fffd15 	stw	r3,-12(fp)
						sampled_data.freq);
				if (power_value > cmd_value.active_power_max) {
   21e94:	e0bfeb17 	ldw	r2,-84(fp)
   21e98:	e0ffec17 	ldw	r3,-80(fp)
   21e9c:	100d883a 	mov	r6,r2
   21ea0:	180f883a 	mov	r7,r3
   21ea4:	e13ffc17 	ldw	r4,-16(fp)
   21ea8:	e17ffd17 	ldw	r5,-12(fp)
   21eac:	0023ec40 	call	23ec4 <__gedf2>
   21eb0:	0080240e 	bge	zero,r2,21f44 <frequency_response_update+0x3bc>
					cmd_value.active_power_max = power_value;
   21eb4:	e0bffc17 	ldw	r2,-16(fp)
   21eb8:	e0bfeb15 	stw	r2,-84(fp)
   21ebc:	e0bffd17 	ldw	r2,-12(fp)
   21ec0:	e0bfec15 	stw	r2,-80(fp)
   21ec4:	00001f06 	br	21f44 <frequency_response_update+0x3bc>
				}
			}

		} else {
			enable_timer_sec();
   21ec8:	00219500 	call	21950 <enable_timer_sec>
			//printf("g_sec_counter = %d \r\n", g_sec_counter);
			if (g_sec_counter > FREQ_MODE_PERSIST_SEC) {
   21ecc:	d0a34817 	ldw	r2,-29408(gp)
   21ed0:	108007d0 	cmplti	r2,r2,31
   21ed4:	1000191e 	bne	r2,zero,21f3c <frequency_response_update+0x3b4>
				ST_GENERAL = NOMINAL;
   21ed8:	d0233f15 	stw	zero,-29444(gp)
				cmd_value.active_power_max = power_ref_latched;
   21edc:	d0a34e17 	ldw	r2,-29384(gp)
   21ee0:	d0e34f17 	ldw	r3,-29380(gp)
   21ee4:	e0bfeb15 	stw	r2,-84(fp)
   21ee8:	e0ffec15 	stw	r3,-80(fp)
				if (debug){
   21eec:	e0bfe817 	ldw	r2,-96(fp)
   21ef0:	10001426 	beq	r2,zero,21f44 <frequency_response_update+0x3bc>

				printf(
   21ef4:	010000f4 	movhi	r4,3
   21ef8:	210bf504 	addi	r4,r4,12244
   21efc:	00255340 	call	25534 <puts>
						"** Transition back to NOMINAL after timeout and hysteresis conditions met.\r\n");
				printf("** Latched power is %f \r\n", power_ref_latched);
   21f00:	d0a34e17 	ldw	r2,-29384(gp)
   21f04:	d0e34f17 	ldw	r3,-29380(gp)
   21f08:	100b883a 	mov	r5,r2
   21f0c:	180d883a 	mov	r6,r3
   21f10:	010000f4 	movhi	r4,3
   21f14:	210c0804 	addi	r4,r4,12320
   21f18:	00254100 	call	25410 <printf>
				printf("** Max power to hold is %f \r\n",
   21f1c:	e0bfeb17 	ldw	r2,-84(fp)
   21f20:	e0ffec17 	ldw	r3,-80(fp)
   21f24:	100b883a 	mov	r5,r2
   21f28:	180d883a 	mov	r6,r3
   21f2c:	010000f4 	movhi	r4,3
   21f30:	210c0f04 	addi	r4,r4,12348
   21f34:	00254100 	call	25410 <printf>
   21f38:	00000206 	br	21f44 <frequency_response_update+0x3bc>
						cmd_value.active_power_max);
				}
			} else {
				ST_GENERAL = FREQ_FALLING;
   21f3c:	00800044 	movi	r2,1
   21f40:	d0a33f15 	stw	r2,-29444(gp)
			}
		}

		*gCommand = cmd_value;
   21f44:	e0bfe917 	ldw	r2,-92(fp)
   21f48:	e0ffeb17 	ldw	r3,-84(fp)
   21f4c:	10c00015 	stw	r3,0(r2)
   21f50:	e0ffec17 	ldw	r3,-80(fp)
   21f54:	10c00115 	stw	r3,4(r2)
   21f58:	e0ffed17 	ldw	r3,-76(fp)
   21f5c:	10c00215 	stw	r3,8(r2)
   21f60:	e0ffee17 	ldw	r3,-72(fp)
   21f64:	10c00315 	stw	r3,12(r2)
   21f68:	e0ffef17 	ldw	r3,-68(fp)
   21f6c:	10c00415 	stw	r3,16(r2)
   21f70:	e0fff017 	ldw	r3,-64(fp)
   21f74:	10c00515 	stw	r3,20(r2)
   21f78:	e0fff117 	ldw	r3,-60(fp)
   21f7c:	10c00615 	stw	r3,24(r2)
   21f80:	e0fff217 	ldw	r3,-56(fp)
   21f84:	10c00715 	stw	r3,28(r2)
		break;
   21f88:	0000ba06 	br	22274 <frequency_response_update+0x6ec>
	}
	case (MAX_POWER): {
		if (sampled_data.freq > F_PMAX) {
   21f8c:	e0bff717 	ldw	r2,-36(fp)
   21f90:	e0fff817 	ldw	r3,-32(fp)
   21f94:	000d883a 	mov	r6,zero
   21f98:	01d01234 	movhi	r7,16456
   21f9c:	1009883a 	mov	r4,r2
   21fa0:	180b883a 	mov	r5,r3
   21fa4:	0023ec40 	call	23ec4 <__gedf2>
   21fa8:	0080080e 	bge	zero,r2,21fcc <frequency_response_update+0x444>
			ST_GENERAL = FREQ_FALLING;
   21fac:	00800044 	movi	r2,1
   21fb0:	d0a33f15 	stw	r2,-29444(gp)

			if (debug) printf("** Transition to FREQ_FALLING\r\n");
   21fb4:	e0bfe817 	ldw	r2,-96(fp)
   21fb8:	10000626 	beq	r2,zero,21fd4 <frequency_response_update+0x44c>
   21fbc:	010000f4 	movhi	r4,3
   21fc0:	210bd804 	addi	r4,r4,12128
   21fc4:	00255340 	call	25534 <puts>
   21fc8:	00000206 	br	21fd4 <frequency_response_update+0x44c>
		} else {
			ST_GENERAL = MAX_POWER;
   21fcc:	00800084 	movi	r2,2
   21fd0:	d0a33f15 	stw	r2,-29444(gp)
		}
		g_max_power_reached = 1;
   21fd4:	00800044 	movi	r2,1
   21fd8:	d0a33d15 	stw	r2,-29452(gp)
		cmd_value.active_power_max = P_MAX;
   21fdc:	e03feb15 	stw	zero,-84(fp)
   21fe0:	00903774 	movhi	r2,16605
   21fe4:	10930004 	addi	r2,r2,19456
   21fe8:	e0bfec15 	stw	r2,-80(fp)
		*gCommand = cmd_value;
   21fec:	e0bfe917 	ldw	r2,-92(fp)
   21ff0:	e0ffeb17 	ldw	r3,-84(fp)
   21ff4:	10c00015 	stw	r3,0(r2)
   21ff8:	e0ffec17 	ldw	r3,-80(fp)
   21ffc:	10c00115 	stw	r3,4(r2)
   22000:	e0ffed17 	ldw	r3,-76(fp)
   22004:	10c00215 	stw	r3,8(r2)
   22008:	e0ffee17 	ldw	r3,-72(fp)
   2200c:	10c00315 	stw	r3,12(r2)
   22010:	e0ffef17 	ldw	r3,-68(fp)
   22014:	10c00415 	stw	r3,16(r2)
   22018:	e0fff017 	ldw	r3,-64(fp)
   2201c:	10c00515 	stw	r3,20(r2)
   22020:	e0fff117 	ldw	r3,-60(fp)
   22024:	10c00615 	stw	r3,24(r2)
   22028:	e0fff217 	ldw	r3,-56(fp)
   2202c:	10c00715 	stw	r3,28(r2)
		break;
   22030:	00009006 	br	22274 <frequency_response_update+0x6ec>
	}

	case (FREQ_RISING): {
		if (sampled_data.freq > F_PMIN) {
   22034:	e0bff717 	ldw	r2,-36(fp)
   22038:	e0fff817 	ldw	r3,-32(fp)
   2203c:	000d883a 	mov	r6,zero
   22040:	01d012b4 	movhi	r7,16458
   22044:	1009883a 	mov	r4,r2
   22048:	180b883a 	mov	r5,r3
   2204c:	0023ec40 	call	23ec4 <__gedf2>
   22050:	00800b0e 	bge	zero,r2,22080 <frequency_response_update+0x4f8>
			ST_GENERAL = MIN_POWER;
   22054:	00800104 	movi	r2,4
   22058:	d0a33f15 	stw	r2,-29444(gp)
			reset_timer_sec();
   2205c:	00219780 	call	21978 <reset_timer_sec>
			cmd_value.active_power_max = P_MIN;
   22060:	e03feb15 	stw	zero,-84(fp)
   22064:	e03fec15 	stw	zero,-80(fp)
			if (debug) printf("** Transition to MIN_POWER\r\n");
   22068:	e0bfe817 	ldw	r2,-96(fp)
   2206c:	10004c26 	beq	r2,zero,221a0 <frequency_response_update+0x618>
   22070:	010000f4 	movhi	r4,3
   22074:	210c1704 	addi	r4,r4,12380
   22078:	00255340 	call	25534 <puts>
   2207c:	00004806 	br	221a0 <frequency_response_update+0x618>
		} else if (sampled_data.freq > (F_ULCO - F_HSYS)) {
   22080:	e0bff717 	ldw	r2,-36(fp)
   22084:	e0fff817 	ldw	r3,-32(fp)
   22088:	018cccf4 	movhi	r6,13107
   2208c:	318cccc4 	addi	r6,r6,13107
   22090:	01d01274 	movhi	r7,16457
   22094:	39c4ccc4 	addi	r7,r7,4915
   22098:	1009883a 	mov	r4,r2
   2209c:	180b883a 	mov	r5,r3
   220a0:	0023ec40 	call	23ec4 <__gedf2>
   220a4:	0080200e 	bge	zero,r2,22128 <frequency_response_update+0x5a0>
			ST_GENERAL = FREQ_RISING;
   220a8:	008000c4 	movi	r2,3
   220ac:	d0a33f15 	stw	r2,-29444(gp)
			reset_timer_sec();
   220b0:	00219780 	call	21978 <reset_timer_sec>
			if (g_min_power_reached) {
   220b4:	d0a33e17 	ldw	r2,-29448(gp)
   220b8:	10000326 	beq	r2,zero,220c8 <frequency_response_update+0x540>
				cmd_value.active_power_max = P_MIN;
   220bc:	e03feb15 	stw	zero,-84(fp)
   220c0:	e03fec15 	stw	zero,-80(fp)
   220c4:	00003606 	br	221a0 <frequency_response_update+0x618>
			} else {
				double power_value = decrement_power(power_ref_latched,
   220c8:	d0a34e17 	ldw	r2,-29384(gp)
   220cc:	d0e34f17 	ldw	r3,-29380(gp)
   220d0:	e13ff717 	ldw	r4,-36(fp)
   220d4:	e17ff817 	ldw	r5,-32(fp)
   220d8:	200d883a 	mov	r6,r4
   220dc:	280f883a 	mov	r7,r5
   220e0:	1009883a 	mov	r4,r2
   220e4:	180b883a 	mov	r5,r3
   220e8:	0021ab00 	call	21ab0 <decrement_power>
   220ec:	e0bffe15 	stw	r2,-8(fp)
   220f0:	e0ffff15 	stw	r3,-4(fp)
						sampled_data.freq);
				if (power_value < cmd_value.active_power_max) {
   220f4:	e0bfeb17 	ldw	r2,-84(fp)
   220f8:	e0ffec17 	ldw	r3,-80(fp)
   220fc:	100d883a 	mov	r6,r2
   22100:	180f883a 	mov	r7,r3
   22104:	e13ffe17 	ldw	r4,-8(fp)
   22108:	e17fff17 	ldw	r5,-4(fp)
   2210c:	0023fac0 	call	23fac <__ledf2>
   22110:	1000230e 	bge	r2,zero,221a0 <frequency_response_update+0x618>
					cmd_value.active_power_max = power_value;
   22114:	e0bffe17 	ldw	r2,-8(fp)
   22118:	e0bfeb15 	stw	r2,-84(fp)
   2211c:	e0bfff17 	ldw	r2,-4(fp)
   22120:	e0bfec15 	stw	r2,-80(fp)
   22124:	00001e06 	br	221a0 <frequency_response_update+0x618>
				}
			}

		} else {
			enable_timer_sec();
   22128:	00219500 	call	21950 <enable_timer_sec>
			//printf("Awaiting timeout...g_sec_counter=  %d\r\n", g_sec_counter);
			if (g_sec_counter > FREQ_MODE_PERSIST_SEC) {
   2212c:	d0a34817 	ldw	r2,-29408(gp)
   22130:	108007d0 	cmplti	r2,r2,31
   22134:	1000181e 	bne	r2,zero,22198 <frequency_response_update+0x610>
				ST_GENERAL = NOMINAL;
   22138:	d0233f15 	stw	zero,-29444(gp)
				if (debug){
   2213c:	e0bfe817 	ldw	r2,-96(fp)
   22140:	10001726 	beq	r2,zero,221a0 <frequency_response_update+0x618>
				printf("\r\nEND");
   22144:	010000f4 	movhi	r4,3
   22148:	210c1e04 	addi	r4,r4,12408
   2214c:	00254100 	call	25410 <printf>
				printf(
   22150:	010000f4 	movhi	r4,3
   22154:	210bf504 	addi	r4,r4,12244
   22158:	00255340 	call	25534 <puts>
						"** Transition back to NOMINAL after timeout and hysteresis conditions met.\r\n");
				printf("** Latched power is %f \r\n", power_ref_latched);
   2215c:	d0a34e17 	ldw	r2,-29384(gp)
   22160:	d0e34f17 	ldw	r3,-29380(gp)
   22164:	100b883a 	mov	r5,r2
   22168:	180d883a 	mov	r6,r3
   2216c:	010000f4 	movhi	r4,3
   22170:	210c0804 	addi	r4,r4,12320
   22174:	00254100 	call	25410 <printf>
				printf("** Min power to hold is %f \r\n",
   22178:	e0bfeb17 	ldw	r2,-84(fp)
   2217c:	e0ffec17 	ldw	r3,-80(fp)
   22180:	100b883a 	mov	r5,r2
   22184:	180d883a 	mov	r6,r3
   22188:	010000f4 	movhi	r4,3
   2218c:	210c2004 	addi	r4,r4,12416
   22190:	00254100 	call	25410 <printf>
   22194:	00000206 	br	221a0 <frequency_response_update+0x618>
						cmd_value.active_power_max);
				}
				//cmd_value.active_power_max = power_ref_latched;
			} else {
				ST_GENERAL = FREQ_RISING;
   22198:	008000c4 	movi	r2,3
   2219c:	d0a33f15 	stw	r2,-29444(gp)
				//cmd_value.active_power_max = P_MAX;
			}
		}

		*gCommand = cmd_value;
   221a0:	e0bfe917 	ldw	r2,-92(fp)
   221a4:	e0ffeb17 	ldw	r3,-84(fp)
   221a8:	10c00015 	stw	r3,0(r2)
   221ac:	e0ffec17 	ldw	r3,-80(fp)
   221b0:	10c00115 	stw	r3,4(r2)
   221b4:	e0ffed17 	ldw	r3,-76(fp)
   221b8:	10c00215 	stw	r3,8(r2)
   221bc:	e0ffee17 	ldw	r3,-72(fp)
   221c0:	10c00315 	stw	r3,12(r2)
   221c4:	e0ffef17 	ldw	r3,-68(fp)
   221c8:	10c00415 	stw	r3,16(r2)
   221cc:	e0fff017 	ldw	r3,-64(fp)
   221d0:	10c00515 	stw	r3,20(r2)
   221d4:	e0fff117 	ldw	r3,-60(fp)
   221d8:	10c00615 	stw	r3,24(r2)
   221dc:	e0fff217 	ldw	r3,-56(fp)
   221e0:	10c00715 	stw	r3,28(r2)
		break;
   221e4:	00002306 	br	22274 <frequency_response_update+0x6ec>
	}

	case (MIN_POWER): {
		if (sampled_data.freq < F_PMIN) {
   221e8:	e0bff717 	ldw	r2,-36(fp)
   221ec:	e0fff817 	ldw	r3,-32(fp)
   221f0:	000d883a 	mov	r6,zero
   221f4:	01d012b4 	movhi	r7,16458
   221f8:	1009883a 	mov	r4,r2
   221fc:	180b883a 	mov	r5,r3
   22200:	0023fac0 	call	23fac <__ledf2>
   22204:	1000030e 	bge	r2,zero,22214 <frequency_response_update+0x68c>
			ST_GENERAL = FREQ_RISING;
   22208:	008000c4 	movi	r2,3
   2220c:	d0a33f15 	stw	r2,-29444(gp)
   22210:	00000206 	br	2221c <frequency_response_update+0x694>
		} else {
			ST_GENERAL = MIN_POWER;
   22214:	00800104 	movi	r2,4
   22218:	d0a33f15 	stw	r2,-29444(gp)
		}
		cmd_value.active_power_max = P_MIN;
   2221c:	e03feb15 	stw	zero,-84(fp)
   22220:	e03fec15 	stw	zero,-80(fp)
		*gCommand = cmd_value;
   22224:	e0bfe917 	ldw	r2,-92(fp)
   22228:	e0ffeb17 	ldw	r3,-84(fp)
   2222c:	10c00015 	stw	r3,0(r2)
   22230:	e0ffec17 	ldw	r3,-80(fp)
   22234:	10c00115 	stw	r3,4(r2)
   22238:	e0ffed17 	ldw	r3,-76(fp)
   2223c:	10c00215 	stw	r3,8(r2)
   22240:	e0ffee17 	ldw	r3,-72(fp)
   22244:	10c00315 	stw	r3,12(r2)
   22248:	e0ffef17 	ldw	r3,-68(fp)
   2224c:	10c00415 	stw	r3,16(r2)
   22250:	e0fff017 	ldw	r3,-64(fp)
   22254:	10c00515 	stw	r3,20(r2)
   22258:	e0fff117 	ldw	r3,-60(fp)
   2225c:	10c00615 	stw	r3,24(r2)
   22260:	e0fff217 	ldw	r3,-56(fp)
   22264:	10c00715 	stw	r3,28(r2)
		g_min_power_reached = 1;
   22268:	00800044 	movi	r2,1
   2226c:	d0a33e15 	stw	r2,-29448(gp)
		break;
   22270:	0001883a 	nop
	}

	}

}
   22274:	0001883a 	nop
   22278:	e037883a 	mov	sp,fp
   2227c:	dfc00117 	ldw	ra,4(sp)
   22280:	df000017 	ldw	fp,0(sp)
   22284:	dec00204 	addi	sp,sp,8
   22288:	f800283a 	ret

0002228c <voltage_sample>:
//===============================================

#include "sampled_data.h"


void voltage_sample(input_t *gInput){
   2228c:	defff404 	addi	sp,sp,-48
   22290:	dfc00b15 	stw	ra,44(sp)
   22294:	df000a15 	stw	fp,40(sp)
   22298:	df000a04 	addi	fp,sp,40
   2229c:	e13ff615 	stw	r4,-40(fp)
	input_t sampled_data;
	sampled_data = *gInput;
   222a0:	e0bff617 	ldw	r2,-40(fp)
   222a4:	10c00017 	ldw	r3,0(r2)
   222a8:	e0fff715 	stw	r3,-36(fp)
   222ac:	10c00117 	ldw	r3,4(r2)
   222b0:	e0fff815 	stw	r3,-32(fp)
   222b4:	10c00217 	ldw	r3,8(r2)
   222b8:	e0fff915 	stw	r3,-28(fp)
   222bc:	10c00317 	ldw	r3,12(r2)
   222c0:	e0fffa15 	stw	r3,-24(fp)
   222c4:	10c00417 	ldw	r3,16(r2)
   222c8:	e0fffb15 	stw	r3,-20(fp)
   222cc:	10c00517 	ldw	r3,20(r2)
   222d0:	e0fffc15 	stw	r3,-16(fp)
   222d4:	10c00617 	ldw	r3,24(r2)
   222d8:	e0fffd15 	stw	r3,-12(fp)
   222dc:	10c00717 	ldw	r3,28(r2)
   222e0:	e0fffe15 	stw	r3,-8(fp)
   222e4:	10800817 	ldw	r2,32(r2)
   222e8:	e0bfff15 	stw	r2,-4(fp)
	sampled_data.sample_k  = IORD_ALTERA_AVALON_PIO_DATA(I_REG32_1_BASE);
   222ec:	00800134 	movhi	r2,4
   222f0:	10855037 	ldwio	r2,5440(r2)
   222f4:	e0bff715 	stw	r2,-36(fp)
	sampled_data.rms = RECIP_ADC_VOLT_GAIN*RECIP_SQRT_3*sqrt((alt_64)sampled_data.sample_k);
   222f8:	e0bff717 	ldw	r2,-36(fp)
   222fc:	100d883a 	mov	r6,r2
   22300:	000f883a 	mov	r7,zero
   22304:	3009883a 	mov	r4,r6
   22308:	380b883a 	mov	r5,r7
   2230c:	0022a580 	call	22a58 <__floatdidf>
   22310:	100d883a 	mov	r6,r2
   22314:	180f883a 	mov	r7,r3
   22318:	3009883a 	mov	r4,r6
   2231c:	380b883a 	mov	r5,r7
   22320:	00227300 	call	22730 <sqrt>
   22324:	1011883a 	mov	r8,r2
   22328:	1813883a 	mov	r9,r3
   2232c:	01916434 	movhi	r6,17808
   22330:	318cc744 	addi	r6,r6,13085
   22334:	01cff0b4 	movhi	r7,16322
   22338:	39de69c4 	addi	r7,r7,31143
   2233c:	4009883a 	mov	r4,r8
   22340:	480b883a 	mov	r5,r9
   22344:	00240940 	call	24094 <__muldf3>
   22348:	1009883a 	mov	r4,r2
   2234c:	180b883a 	mov	r5,r3
   22350:	2005883a 	mov	r2,r4
   22354:	2807883a 	mov	r3,r5
   22358:	e0bff815 	stw	r2,-32(fp)
   2235c:	e0fff915 	stw	r3,-28(fp)
	*gInput = sampled_data;
   22360:	e0bff617 	ldw	r2,-40(fp)
   22364:	e0fff717 	ldw	r3,-36(fp)
   22368:	10c00015 	stw	r3,0(r2)
   2236c:	e0fff817 	ldw	r3,-32(fp)
   22370:	10c00115 	stw	r3,4(r2)
   22374:	e0fff917 	ldw	r3,-28(fp)
   22378:	10c00215 	stw	r3,8(r2)
   2237c:	e0fffa17 	ldw	r3,-24(fp)
   22380:	10c00315 	stw	r3,12(r2)
   22384:	e0fffb17 	ldw	r3,-20(fp)
   22388:	10c00415 	stw	r3,16(r2)
   2238c:	e0fffc17 	ldw	r3,-16(fp)
   22390:	10c00515 	stw	r3,20(r2)
   22394:	e0fffd17 	ldw	r3,-12(fp)
   22398:	10c00615 	stw	r3,24(r2)
   2239c:	e0fffe17 	ldw	r3,-8(fp)
   223a0:	10c00715 	stw	r3,28(r2)
   223a4:	e0ffff17 	ldw	r3,-4(fp)
   223a8:	10c00815 	stw	r3,32(r2)
}
   223ac:	0001883a 	nop
   223b0:	e037883a 	mov	sp,fp
   223b4:	dfc00117 	ldw	ra,4(sp)
   223b8:	df000017 	ldw	fp,0(sp)
   223bc:	dec00204 	addi	sp,sp,8
   223c0:	f800283a 	ret

000223c4 <frequency_sample>:

void frequency_sample(input_t *gInput){
   223c4:	defff404 	addi	sp,sp,-48
   223c8:	dfc00b15 	stw	ra,44(sp)
   223cc:	df000a15 	stw	fp,40(sp)
   223d0:	df000a04 	addi	fp,sp,40
   223d4:	e13ff615 	stw	r4,-40(fp)
	input_t sampled_data;
	sampled_data = *gInput;
   223d8:	e0bff617 	ldw	r2,-40(fp)
   223dc:	10c00017 	ldw	r3,0(r2)
   223e0:	e0fff715 	stw	r3,-36(fp)
   223e4:	10c00117 	ldw	r3,4(r2)
   223e8:	e0fff815 	stw	r3,-32(fp)
   223ec:	10c00217 	ldw	r3,8(r2)
   223f0:	e0fff915 	stw	r3,-28(fp)
   223f4:	10c00317 	ldw	r3,12(r2)
   223f8:	e0fffa15 	stw	r3,-24(fp)
   223fc:	10c00417 	ldw	r3,16(r2)
   22400:	e0fffb15 	stw	r3,-20(fp)
   22404:	10c00517 	ldw	r3,20(r2)
   22408:	e0fffc15 	stw	r3,-16(fp)
   2240c:	10c00617 	ldw	r3,24(r2)
   22410:	e0fffd15 	stw	r3,-12(fp)
   22414:	10c00717 	ldw	r3,28(r2)
   22418:	e0fffe15 	stw	r3,-8(fp)
   2241c:	10800817 	ldw	r2,32(r2)
   22420:	e0bfff15 	stw	r2,-4(fp)
	sampled_data.timer_k   = IORD_ALTERA_AVALON_PIO_DATA(I_REG32_2_BASE);
   22424:	00800134 	movhi	r2,4
   22428:	10850037 	ldwio	r2,5120(r2)
   2242c:	e0bffa15 	stw	r2,-24(fp)
	sampled_data.freq = 1/(FPGA_MCLK*((alt_64)sampled_data.timer_k));
   22430:	e0bffa17 	ldw	r2,-24(fp)
   22434:	100d883a 	mov	r6,r2
   22438:	000f883a 	mov	r7,zero
   2243c:	3009883a 	mov	r4,r6
   22440:	380b883a 	mov	r5,r7
   22444:	0022a580 	call	22a58 <__floatdidf>
   22448:	1011883a 	mov	r8,r2
   2244c:	1813883a 	mov	r9,r3
   22450:	01b88c74 	movhi	r6,57905
   22454:	31a30e84 	addi	r6,r6,-29638
   22458:	01cf9574 	movhi	r7,15957
   2245c:	39de6384 	addi	r7,r7,31118
   22460:	4009883a 	mov	r4,r8
   22464:	480b883a 	mov	r5,r9
   22468:	00240940 	call	24094 <__muldf3>
   2246c:	1009883a 	mov	r4,r2
   22470:	180b883a 	mov	r5,r3
   22474:	2005883a 	mov	r2,r4
   22478:	2807883a 	mov	r3,r5
   2247c:	100d883a 	mov	r6,r2
   22480:	180f883a 	mov	r7,r3
   22484:	0009883a 	mov	r4,zero
   22488:	014ffc34 	movhi	r5,16368
   2248c:	00235940 	call	23594 <__divdf3>
   22490:	1009883a 	mov	r4,r2
   22494:	180b883a 	mov	r5,r3
   22498:	2005883a 	mov	r2,r4
   2249c:	2807883a 	mov	r3,r5
   224a0:	e0bffb15 	stw	r2,-20(fp)
   224a4:	e0fffc15 	stw	r3,-16(fp)
	*gInput = sampled_data;
   224a8:	e0bff617 	ldw	r2,-40(fp)
   224ac:	e0fff717 	ldw	r3,-36(fp)
   224b0:	10c00015 	stw	r3,0(r2)
   224b4:	e0fff817 	ldw	r3,-32(fp)
   224b8:	10c00115 	stw	r3,4(r2)
   224bc:	e0fff917 	ldw	r3,-28(fp)
   224c0:	10c00215 	stw	r3,8(r2)
   224c4:	e0fffa17 	ldw	r3,-24(fp)
   224c8:	10c00315 	stw	r3,12(r2)
   224cc:	e0fffb17 	ldw	r3,-20(fp)
   224d0:	10c00415 	stw	r3,16(r2)
   224d4:	e0fffc17 	ldw	r3,-16(fp)
   224d8:	10c00515 	stw	r3,20(r2)
   224dc:	e0fffd17 	ldw	r3,-12(fp)
   224e0:	10c00615 	stw	r3,24(r2)
   224e4:	e0fffe17 	ldw	r3,-8(fp)
   224e8:	10c00715 	stw	r3,28(r2)
   224ec:	e0ffff17 	ldw	r3,-4(fp)
   224f0:	10c00815 	stw	r3,32(r2)
}
   224f4:	0001883a 	nop
   224f8:	e037883a 	mov	sp,fp
   224fc:	dfc00117 	ldw	ra,4(sp)
   22500:	df000017 	ldw	fp,0(sp)
   22504:	dec00204 	addi	sp,sp,8
   22508:	f800283a 	ret

0002250c <sample_power_values>:

void sample_power_values(input_t *gInput){
   2250c:	defff404 	addi	sp,sp,-48
   22510:	dfc00b15 	stw	ra,44(sp)
   22514:	df000a15 	stw	fp,40(sp)
   22518:	df000a04 	addi	fp,sp,40
   2251c:	e13ff615 	stw	r4,-40(fp)
	input_t power;
	power = *gInput;
   22520:	e0bff617 	ldw	r2,-40(fp)
   22524:	10c00017 	ldw	r3,0(r2)
   22528:	e0fff715 	stw	r3,-36(fp)
   2252c:	10c00117 	ldw	r3,4(r2)
   22530:	e0fff815 	stw	r3,-32(fp)
   22534:	10c00217 	ldw	r3,8(r2)
   22538:	e0fff915 	stw	r3,-28(fp)
   2253c:	10c00317 	ldw	r3,12(r2)
   22540:	e0fffa15 	stw	r3,-24(fp)
   22544:	10c00417 	ldw	r3,16(r2)
   22548:	e0fffb15 	stw	r3,-20(fp)
   2254c:	10c00517 	ldw	r3,20(r2)
   22550:	e0fffc15 	stw	r3,-16(fp)
   22554:	10c00617 	ldw	r3,24(r2)
   22558:	e0fffd15 	stw	r3,-12(fp)
   2255c:	10c00717 	ldw	r3,28(r2)
   22560:	e0fffe15 	stw	r3,-8(fp)
   22564:	10800817 	ldw	r2,32(r2)
   22568:	e0bfff15 	stw	r2,-4(fp)
	power.real_k = IORD_ALTERA_AVALON_PIO_DATA(I_REG32_3_BASE);
   2256c:	00800134 	movhi	r2,4
   22570:	1084fc37 	ldwio	r2,5104(r2)
   22574:	e0bffd15 	stw	r2,-12(fp)
	power.real_power = (SQRT_3_DIV_2 * FILTER_SCALE) * sqrt((alt_64)power.real_k);
   22578:	e0bffd17 	ldw	r2,-12(fp)
   2257c:	100d883a 	mov	r6,r2
   22580:	000f883a 	mov	r7,zero
   22584:	3009883a 	mov	r4,r6
   22588:	380b883a 	mov	r5,r7
   2258c:	0022a580 	call	22a58 <__floatdidf>
   22590:	100d883a 	mov	r6,r2
   22594:	180f883a 	mov	r7,r3
   22598:	3009883a 	mov	r4,r6
   2259c:	380b883a 	mov	r5,r7
   225a0:	00227300 	call	22730 <sqrt>
   225a4:	1011883a 	mov	r8,r2
   225a8:	1813883a 	mov	r9,r3
   225ac:	01850274 	movhi	r6,5129
   225b0:	31884b84 	addi	r6,r6,8494
   225b4:	01cff934 	movhi	r7,16356
   225b8:	39e62384 	addi	r7,r7,-26482
   225bc:	4009883a 	mov	r4,r8
   225c0:	480b883a 	mov	r5,r9
   225c4:	00240940 	call	24094 <__muldf3>
   225c8:	1009883a 	mov	r4,r2
   225cc:	180b883a 	mov	r5,r3
   225d0:	2005883a 	mov	r2,r4
   225d4:	2807883a 	mov	r3,r5
   225d8:	e0bffe15 	stw	r2,-8(fp)
   225dc:	e0ffff15 	stw	r3,-4(fp)
	*gInput = power;
   225e0:	e0bff617 	ldw	r2,-40(fp)
   225e4:	e0fff717 	ldw	r3,-36(fp)
   225e8:	10c00015 	stw	r3,0(r2)
   225ec:	e0fff817 	ldw	r3,-32(fp)
   225f0:	10c00115 	stw	r3,4(r2)
   225f4:	e0fff917 	ldw	r3,-28(fp)
   225f8:	10c00215 	stw	r3,8(r2)
   225fc:	e0fffa17 	ldw	r3,-24(fp)
   22600:	10c00315 	stw	r3,12(r2)
   22604:	e0fffb17 	ldw	r3,-20(fp)
   22608:	10c00415 	stw	r3,16(r2)
   2260c:	e0fffc17 	ldw	r3,-16(fp)
   22610:	10c00515 	stw	r3,20(r2)
   22614:	e0fffd17 	ldw	r3,-12(fp)
   22618:	10c00615 	stw	r3,24(r2)
   2261c:	e0fffe17 	ldw	r3,-8(fp)
   22620:	10c00715 	stw	r3,28(r2)
   22624:	e0ffff17 	ldw	r3,-4(fp)
   22628:	10c00815 	stw	r3,32(r2)
}
   2262c:	0001883a 	nop
   22630:	e037883a 	mov	sp,fp
   22634:	dfc00117 	ldw	ra,4(sp)
   22638:	df000017 	ldw	fp,0(sp)
   2263c:	dec00204 	addi	sp,sp,8
   22640:	f800283a 	ret

00022644 <set_squares_filter>:

void set_squares_filter(filter_t* filter_params){
   22644:	defffe04 	addi	sp,sp,-8
   22648:	df000115 	stw	fp,4(sp)
   2264c:	df000104 	addi	fp,sp,4
   22650:	e13fff15 	stw	r4,-4(fp)

	IOWR_ALTERA_AVALON_PIO_DATA(O_REG32_4_BASE, filter_params->tsx);
   22654:	e0bfff17 	ldw	r2,-4(fp)
   22658:	10800217 	ldw	r2,8(r2)
   2265c:	1007883a 	mov	r3,r2
   22660:	00800134 	movhi	r2,4
   22664:	10c52035 	stwio	r3,5248(r2)
	IOWR_ALTERA_AVALON_PIO_DATA(O_REG32_5_BASE, filter_params->alpha);
   22668:	e0bfff17 	ldw	r2,-4(fp)
   2266c:	10800017 	ldw	r2,0(r2)
   22670:	1007883a 	mov	r3,r2
   22674:	00800134 	movhi	r2,4
   22678:	10c51c35 	stwio	r3,5232(r2)
	IOWR_ALTERA_AVALON_PIO_DATA(O_REG32_6_BASE, filter_params->beta);
   2267c:	e0bfff17 	ldw	r2,-4(fp)
   22680:	10800117 	ldw	r2,4(r2)
   22684:	1007883a 	mov	r3,r2
   22688:	00800134 	movhi	r2,4
   2268c:	10c51835 	stwio	r3,5216(r2)
}
   22690:	0001883a 	nop
   22694:	e037883a 	mov	sp,fp
   22698:	df000017 	ldw	fp,0(sp)
   2269c:	dec00104 	addi	sp,sp,4
   226a0:	f800283a 	ret

000226a4 <set_timer_filter>:

void set_timer_filter(filter_t* filter_params){
   226a4:	defffe04 	addi	sp,sp,-8
   226a8:	df000115 	stw	fp,4(sp)
   226ac:	df000104 	addi	fp,sp,4
   226b0:	e13fff15 	stw	r4,-4(fp)
	IOWR_ALTERA_AVALON_PIO_DATA(O_REG32_11_BASE, filter_params->tsx);
   226b4:	e0bfff17 	ldw	r2,-4(fp)
   226b8:	10800217 	ldw	r2,8(r2)
   226bc:	1007883a 	mov	r3,r2
   226c0:	00800134 	movhi	r2,4
   226c4:	10c50435 	stwio	r3,5136(r2)
	IOWR_ALTERA_AVALON_PIO_DATA(O_REG32_8_BASE, filter_params->alpha);
   226c8:	e0bfff17 	ldw	r2,-4(fp)
   226cc:	10800017 	ldw	r2,0(r2)
   226d0:	1007883a 	mov	r3,r2
   226d4:	00800134 	movhi	r2,4
   226d8:	10c51035 	stwio	r3,5184(r2)
	IOWR_ALTERA_AVALON_PIO_DATA(O_REG32_9_BASE, filter_params->beta);
   226dc:	e0bfff17 	ldw	r2,-4(fp)
   226e0:	10800117 	ldw	r2,4(r2)
   226e4:	1007883a 	mov	r3,r2
   226e8:	00800134 	movhi	r2,4
   226ec:	10c50c35 	stwio	r3,5168(r2)
}
   226f0:	0001883a 	nop
   226f4:	e037883a 	mov	sp,fp
   226f8:	df000017 	ldw	fp,0(sp)
   226fc:	dec00104 	addi	sp,sp,4
   22700:	f800283a 	ret

00022704 <disable_fpga_filter>:



void disable_fpga_filter(){
   22704:	deffff04 	addi	sp,sp,-4
   22708:	df000015 	stw	fp,0(sp)
   2270c:	d839883a 	mov	fp,sp
	IOWR_ALTERA_AVALON_PIO_DATA(O_REG32_7_BASE, 0x0);
   22710:	0007883a 	mov	r3,zero
   22714:	00800134 	movhi	r2,4
   22718:	10c51435 	stwio	r3,5200(r2)
}
   2271c:	0001883a 	nop
   22720:	e037883a 	mov	sp,fp
   22724:	df000017 	ldw	fp,0(sp)
   22728:	dec00104 	addi	sp,sp,4
   2272c:	f800283a 	ret

00022730 <sqrt>:
   22730:	defffb04 	addi	sp,sp,-20
   22734:	dcc00315 	stw	r19,12(sp)
   22738:	dc800215 	stw	r18,8(sp)
   2273c:	dc400115 	stw	r17,4(sp)
   22740:	dc000015 	stw	r16,0(sp)
   22744:	2023883a 	mov	r17,r4
   22748:	dfc00415 	stw	ra,16(sp)
   2274c:	2821883a 	mov	r16,r5
   22750:	00227ec0 	call	227ec <__ieee754_sqrt>
   22754:	010000f4 	movhi	r4,3
   22758:	2110ce17 	ldw	r4,17208(r4)
   2275c:	1027883a 	mov	r19,r2
   22760:	1825883a 	mov	r18,r3
   22764:	213fffe0 	cmpeqi	r4,r4,-1
   22768:	20000c1e 	bne	r4,zero,2279c <sqrt+0x6c>
   2276c:	880d883a 	mov	r6,r17
   22770:	800f883a 	mov	r7,r16
   22774:	8809883a 	mov	r4,r17
   22778:	800b883a 	mov	r5,r16
   2277c:	00250f40 	call	250f4 <__unorddf2>
   22780:	1000061e 	bne	r2,zero,2279c <sqrt+0x6c>
   22784:	000d883a 	mov	r6,zero
   22788:	000f883a 	mov	r7,zero
   2278c:	8809883a 	mov	r4,r17
   22790:	800b883a 	mov	r5,r16
   22794:	0023fac0 	call	23fac <__ledf2>
   22798:	10000916 	blt	r2,zero,227c0 <sqrt+0x90>
   2279c:	9805883a 	mov	r2,r19
   227a0:	9007883a 	mov	r3,r18
   227a4:	dfc00417 	ldw	ra,16(sp)
   227a8:	dcc00317 	ldw	r19,12(sp)
   227ac:	dc800217 	ldw	r18,8(sp)
   227b0:	dc400117 	ldw	r17,4(sp)
   227b4:	dc000017 	ldw	r16,0(sp)
   227b8:	dec00504 	addi	sp,sp,20
   227bc:	f800283a 	ret
   227c0:	00252e40 	call	252e4 <__errno>
   227c4:	00c00844 	movi	r3,33
   227c8:	10c00015 	stw	r3,0(r2)
   227cc:	000d883a 	mov	r6,zero
   227d0:	000f883a 	mov	r7,zero
   227d4:	0009883a 	mov	r4,zero
   227d8:	000b883a 	mov	r5,zero
   227dc:	00235940 	call	23594 <__divdf3>
   227e0:	1027883a 	mov	r19,r2
   227e4:	1825883a 	mov	r18,r3
   227e8:	003fec06 	br	2279c <sqrt+0x6c>

000227ec <__ieee754_sqrt>:
   227ec:	defffd04 	addi	sp,sp,-12
   227f0:	dc400115 	stw	r17,4(sp)
   227f4:	dc000015 	stw	r16,0(sp)
   227f8:	dfc00215 	stw	ra,8(sp)
   227fc:	28dffc2c 	andhi	r3,r5,32752
   22800:	009ffc34 	movhi	r2,32752
   22804:	2821883a 	mov	r16,r5
   22808:	2023883a 	mov	r17,r4
   2280c:	18807726 	beq	r3,r2,229ec <__ieee754_sqrt+0x200>
   22810:	2011883a 	mov	r8,r4
   22814:	01403a0e 	bge	zero,r5,22900 <__ieee754_sqrt+0x114>
   22818:	280bd53a 	srai	r5,r5,20
   2281c:	28004626 	beq	r5,zero,22938 <__ieee754_sqrt+0x14c>
   22820:	00800434 	movhi	r2,16
   22824:	10bfffc4 	addi	r2,r2,-1
   22828:	4006d7fa 	srli	r3,r8,31
   2282c:	8084703a 	and	r2,r16,r2
   22830:	297f0044 	addi	r5,r5,-1023
   22834:	10800434 	orhi	r2,r2,16
   22838:	1085883a 	add	r2,r2,r2
   2283c:	2980004c 	andi	r6,r5,1
   22840:	10c7883a 	add	r3,r2,r3
   22844:	4209883a 	add	r4,r8,r8
   22848:	30000426 	beq	r6,zero,2285c <__ieee754_sqrt+0x70>
   2284c:	2004d7fa 	srli	r2,r4,31
   22850:	400890ba 	slli	r4,r8,2
   22854:	18c7883a 	add	r3,r3,r3
   22858:	1887883a 	add	r3,r3,r2
   2285c:	2815d07a 	srai	r10,r5,1
   22860:	01c00584 	movi	r7,22
   22864:	0019883a 	mov	r12,zero
   22868:	000b883a 	mov	r5,zero
   2286c:	00800834 	movhi	r2,32
   22870:	288d883a 	add	r6,r5,r2
   22874:	2010d7fa 	srli	r8,r4,31
   22878:	39ffffc4 	addi	r7,r7,-1
   2287c:	19800316 	blt	r3,r6,2288c <__ieee754_sqrt+0xa0>
   22880:	1987c83a 	sub	r3,r3,r6
   22884:	308b883a 	add	r5,r6,r2
   22888:	6099883a 	add	r12,r12,r2
   2288c:	18c7883a 	add	r3,r3,r3
   22890:	1004d07a 	srli	r2,r2,1
   22894:	40c7883a 	add	r3,r8,r3
   22898:	2109883a 	add	r4,r4,r4
   2289c:	383ff41e 	bne	r7,zero,22870 <__ieee754_sqrt+0x84>
   228a0:	0013883a 	mov	r9,zero
   228a4:	00800804 	movi	r2,32
   228a8:	01a00034 	movhi	r6,32768
   228ac:	00000806 	br	228d0 <__ieee754_sqrt+0xe4>
   228b0:	19403326 	beq	r3,r5,22980 <__ieee754_sqrt+0x194>
   228b4:	2010d7fa 	srli	r8,r4,31
   228b8:	18c7883a 	add	r3,r3,r3
   228bc:	10bfffc4 	addi	r2,r2,-1
   228c0:	300cd07a 	srli	r6,r6,1
   228c4:	1a07883a 	add	r3,r3,r8
   228c8:	2109883a 	add	r4,r4,r4
   228cc:	10003226 	beq	r2,zero,22998 <__ieee754_sqrt+0x1ac>
   228d0:	31d1883a 	add	r8,r6,r7
   228d4:	28fff60e 	bge	r5,r3,228b0 <__ieee754_sqrt+0xc4>
   228d8:	418f883a 	add	r7,r8,r6
   228dc:	40002516 	blt	r8,zero,22974 <__ieee754_sqrt+0x188>
   228e0:	2817883a 	mov	r11,r5
   228e4:	1947c83a 	sub	r3,r3,r5
   228e8:	2200012e 	bgeu	r4,r8,228f0 <__ieee754_sqrt+0x104>
   228ec:	18ffffc4 	addi	r3,r3,-1
   228f0:	2209c83a 	sub	r4,r4,r8
   228f4:	4993883a 	add	r9,r9,r6
   228f8:	580b883a 	mov	r5,r11
   228fc:	003fed06 	br	228b4 <__ieee754_sqrt+0xc8>
   22900:	00a00034 	movhi	r2,32768
   22904:	10bfffc4 	addi	r2,r2,-1
   22908:	2884703a 	and	r2,r5,r2
   2290c:	1104b03a 	or	r2,r2,r4
   22910:	10004826 	beq	r2,zero,22a34 <__ieee754_sqrt+0x248>
   22914:	28003e1e 	bne	r5,zero,22a10 <__ieee754_sqrt+0x224>
   22918:	000b883a 	mov	r5,zero
   2291c:	4004d2fa 	srli	r2,r8,11
   22920:	297ffac4 	addi	r5,r5,-21
   22924:	4010957a 	slli	r8,r8,21
   22928:	1021883a 	mov	r16,r2
   2292c:	103ffb26 	beq	r2,zero,2291c <__ieee754_sqrt+0x130>
   22930:	10c0042c 	andhi	r3,r2,16
   22934:	1800441e 	bne	r3,zero,22a48 <__ieee754_sqrt+0x25c>
   22938:	0005883a 	mov	r2,zero
   2293c:	8421883a 	add	r16,r16,r16
   22940:	8100042c 	andhi	r4,r16,16
   22944:	1007883a 	mov	r3,r2
   22948:	10800044 	addi	r2,r2,1
   2294c:	203ffb26 	beq	r4,zero,2293c <__ieee754_sqrt+0x150>
   22950:	01800804 	movi	r6,32
   22954:	4009883a 	mov	r4,r8
   22958:	308dc83a 	sub	r6,r6,r2
   2295c:	4090983a 	sll	r8,r8,r2
   22960:	8005883a 	mov	r2,r16
   22964:	218ed83a 	srl	r7,r4,r6
   22968:	28cbc83a 	sub	r5,r5,r3
   2296c:	38a0b03a 	or	r16,r7,r2
   22970:	003fab06 	br	22820 <__ieee754_sqrt+0x34>
   22974:	383fda16 	blt	r7,zero,228e0 <__ieee754_sqrt+0xf4>
   22978:	2ac00044 	addi	r11,r5,1
   2297c:	003fd906 	br	228e4 <__ieee754_sqrt+0xf8>
   22980:	223fcc36 	bltu	r4,r8,228b4 <__ieee754_sqrt+0xc8>
   22984:	418f883a 	add	r7,r8,r6
   22988:	403ffa16 	blt	r8,zero,22974 <__ieee754_sqrt+0x188>
   2298c:	1817883a 	mov	r11,r3
   22990:	0007883a 	mov	r3,zero
   22994:	003fd606 	br	228f0 <__ieee754_sqrt+0x104>
   22998:	1906b03a 	or	r3,r3,r4
   2299c:	18000e1e 	bne	r3,zero,229d8 <__ieee754_sqrt+0x1ec>
   229a0:	4804d07a 	srli	r2,r9,1
   229a4:	6007d07a 	srai	r3,r12,1
   229a8:	01cff834 	movhi	r7,16352
   229ac:	6300004c 	andi	r12,r12,1
   229b0:	19cf883a 	add	r7,r3,r7
   229b4:	60000126 	beq	r12,zero,229bc <__ieee754_sqrt+0x1d0>
   229b8:	10a00034 	orhi	r2,r2,32768
   229bc:	5006953a 	slli	r3,r10,20
   229c0:	19c7883a 	add	r3,r3,r7
   229c4:	dfc00217 	ldw	ra,8(sp)
   229c8:	dc400117 	ldw	r17,4(sp)
   229cc:	dc000017 	ldw	r16,0(sp)
   229d0:	dec00304 	addi	sp,sp,12
   229d4:	f800283a 	ret
   229d8:	48ffffd8 	cmpnei	r3,r9,-1
   229dc:	18001826 	beq	r3,zero,22a40 <__ieee754_sqrt+0x254>
   229e0:	48800044 	addi	r2,r9,1
   229e4:	1004d07a 	srli	r2,r2,1
   229e8:	003fee06 	br	229a4 <__ieee754_sqrt+0x1b8>
   229ec:	200d883a 	mov	r6,r4
   229f0:	280f883a 	mov	r7,r5
   229f4:	00240940 	call	24094 <__muldf3>
   229f8:	880d883a 	mov	r6,r17
   229fc:	800f883a 	mov	r7,r16
   22a00:	1009883a 	mov	r4,r2
   22a04:	180b883a 	mov	r5,r3
   22a08:	0022ca40 	call	22ca4 <__adddf3>
   22a0c:	003fed06 	br	229c4 <__ieee754_sqrt+0x1d8>
   22a10:	200d883a 	mov	r6,r4
   22a14:	280f883a 	mov	r7,r5
   22a18:	00248400 	call	24840 <__subdf3>
   22a1c:	100d883a 	mov	r6,r2
   22a20:	180f883a 	mov	r7,r3
   22a24:	1009883a 	mov	r4,r2
   22a28:	180b883a 	mov	r5,r3
   22a2c:	00235940 	call	23594 <__divdf3>
   22a30:	003fe406 	br	229c4 <__ieee754_sqrt+0x1d8>
   22a34:	2005883a 	mov	r2,r4
   22a38:	2807883a 	mov	r3,r5
   22a3c:	003fe106 	br	229c4 <__ieee754_sqrt+0x1d8>
   22a40:	63000044 	addi	r12,r12,1
   22a44:	003fd706 	br	229a4 <__ieee754_sqrt+0x1b8>
   22a48:	4009883a 	mov	r4,r8
   22a4c:	01800804 	movi	r6,32
   22a50:	00ffffc4 	movi	r3,-1
   22a54:	003fc306 	br	22964 <__ieee754_sqrt+0x178>

00022a58 <__floatdidf>:
   22a58:	defffc04 	addi	sp,sp,-16
   22a5c:	dc800215 	stw	r18,8(sp)
   22a60:	2025883a 	mov	r18,r4
   22a64:	2809883a 	mov	r4,r5
   22a68:	dfc00315 	stw	ra,12(sp)
   22a6c:	dc400115 	stw	r17,4(sp)
   22a70:	dc000015 	stw	r16,0(sp)
   22a74:	00251480 	call	25148 <__floatsidf>
   22a78:	000d883a 	mov	r6,zero
   22a7c:	01d07c34 	movhi	r7,16880
   22a80:	180b883a 	mov	r5,r3
   22a84:	1009883a 	mov	r4,r2
   22a88:	00240940 	call	24094 <__muldf3>
   22a8c:	9009883a 	mov	r4,r18
   22a90:	1023883a 	mov	r17,r2
   22a94:	1821883a 	mov	r16,r3
   22a98:	00252000 	call	25200 <__floatunsidf>
   22a9c:	880d883a 	mov	r6,r17
   22aa0:	800f883a 	mov	r7,r16
   22aa4:	1009883a 	mov	r4,r2
   22aa8:	180b883a 	mov	r5,r3
   22aac:	0022ca40 	call	22ca4 <__adddf3>
   22ab0:	dfc00317 	ldw	ra,12(sp)
   22ab4:	dc800217 	ldw	r18,8(sp)
   22ab8:	dc400117 	ldw	r17,4(sp)
   22abc:	dc000017 	ldw	r16,0(sp)
   22ac0:	dec00404 	addi	sp,sp,16
   22ac4:	f800283a 	ret

00022ac8 <__divsi3>:
   22ac8:	20001a16 	blt	r4,zero,22b34 <__divsi3+0x6c>
   22acc:	000f883a 	mov	r7,zero
   22ad0:	2800020e 	bge	r5,zero,22adc <__divsi3+0x14>
   22ad4:	014bc83a 	sub	r5,zero,r5
   22ad8:	39c0005c 	xori	r7,r7,1
   22adc:	200d883a 	mov	r6,r4
   22ae0:	00c00044 	movi	r3,1
   22ae4:	2900092e 	bgeu	r5,r4,22b0c <__divsi3+0x44>
   22ae8:	00800804 	movi	r2,32
   22aec:	00c00044 	movi	r3,1
   22af0:	00000106 	br	22af8 <__divsi3+0x30>
   22af4:	10001226 	beq	r2,zero,22b40 <__divsi3+0x78>
   22af8:	294b883a 	add	r5,r5,r5
   22afc:	10bfffc4 	addi	r2,r2,-1
   22b00:	18c7883a 	add	r3,r3,r3
   22b04:	293ffb36 	bltu	r5,r4,22af4 <__divsi3+0x2c>
   22b08:	18000d26 	beq	r3,zero,22b40 <__divsi3+0x78>
   22b0c:	0005883a 	mov	r2,zero
   22b10:	31400236 	bltu	r6,r5,22b1c <__divsi3+0x54>
   22b14:	314dc83a 	sub	r6,r6,r5
   22b18:	10c4b03a 	or	r2,r2,r3
   22b1c:	1806d07a 	srli	r3,r3,1
   22b20:	280ad07a 	srli	r5,r5,1
   22b24:	183ffa1e 	bne	r3,zero,22b10 <__divsi3+0x48>
   22b28:	38000126 	beq	r7,zero,22b30 <__divsi3+0x68>
   22b2c:	0085c83a 	sub	r2,zero,r2
   22b30:	f800283a 	ret
   22b34:	0109c83a 	sub	r4,zero,r4
   22b38:	01c00044 	movi	r7,1
   22b3c:	003fe406 	br	22ad0 <__divsi3+0x8>
   22b40:	0005883a 	mov	r2,zero
   22b44:	003ff806 	br	22b28 <__divsi3+0x60>

00022b48 <__modsi3>:
   22b48:	20001916 	blt	r4,zero,22bb0 <__modsi3+0x68>
   22b4c:	000f883a 	mov	r7,zero
   22b50:	2005883a 	mov	r2,r4
   22b54:	2800010e 	bge	r5,zero,22b5c <__modsi3+0x14>
   22b58:	014bc83a 	sub	r5,zero,r5
   22b5c:	00c00044 	movi	r3,1
   22b60:	2900092e 	bgeu	r5,r4,22b88 <__modsi3+0x40>
   22b64:	01800804 	movi	r6,32
   22b68:	00c00044 	movi	r3,1
   22b6c:	00000106 	br	22b74 <__modsi3+0x2c>
   22b70:	30000d26 	beq	r6,zero,22ba8 <__modsi3+0x60>
   22b74:	294b883a 	add	r5,r5,r5
   22b78:	31bfffc4 	addi	r6,r6,-1
   22b7c:	18c7883a 	add	r3,r3,r3
   22b80:	293ffb36 	bltu	r5,r4,22b70 <__modsi3+0x28>
   22b84:	18000826 	beq	r3,zero,22ba8 <__modsi3+0x60>
   22b88:	1806d07a 	srli	r3,r3,1
   22b8c:	11400136 	bltu	r2,r5,22b94 <__modsi3+0x4c>
   22b90:	1145c83a 	sub	r2,r2,r5
   22b94:	280ad07a 	srli	r5,r5,1
   22b98:	183ffb1e 	bne	r3,zero,22b88 <__modsi3+0x40>
   22b9c:	38000126 	beq	r7,zero,22ba4 <__modsi3+0x5c>
   22ba0:	0085c83a 	sub	r2,zero,r2
   22ba4:	f800283a 	ret
   22ba8:	2005883a 	mov	r2,r4
   22bac:	003ffb06 	br	22b9c <__modsi3+0x54>
   22bb0:	0109c83a 	sub	r4,zero,r4
   22bb4:	01c00044 	movi	r7,1
   22bb8:	003fe506 	br	22b50 <__modsi3+0x8>

00022bbc <__udivsi3>:
   22bbc:	200d883a 	mov	r6,r4
   22bc0:	2900152e 	bgeu	r5,r4,22c18 <__udivsi3+0x5c>
   22bc4:	28001416 	blt	r5,zero,22c18 <__udivsi3+0x5c>
   22bc8:	00800804 	movi	r2,32
   22bcc:	00c00044 	movi	r3,1
   22bd0:	00000206 	br	22bdc <__udivsi3+0x20>
   22bd4:	10000e26 	beq	r2,zero,22c10 <__udivsi3+0x54>
   22bd8:	28000516 	blt	r5,zero,22bf0 <__udivsi3+0x34>
   22bdc:	294b883a 	add	r5,r5,r5
   22be0:	10bfffc4 	addi	r2,r2,-1
   22be4:	18c7883a 	add	r3,r3,r3
   22be8:	293ffa36 	bltu	r5,r4,22bd4 <__udivsi3+0x18>
   22bec:	18000826 	beq	r3,zero,22c10 <__udivsi3+0x54>
   22bf0:	0005883a 	mov	r2,zero
   22bf4:	31400236 	bltu	r6,r5,22c00 <__udivsi3+0x44>
   22bf8:	314dc83a 	sub	r6,r6,r5
   22bfc:	10c4b03a 	or	r2,r2,r3
   22c00:	1806d07a 	srli	r3,r3,1
   22c04:	280ad07a 	srli	r5,r5,1
   22c08:	183ffa1e 	bne	r3,zero,22bf4 <__udivsi3+0x38>
   22c0c:	f800283a 	ret
   22c10:	0005883a 	mov	r2,zero
   22c14:	f800283a 	ret
   22c18:	00c00044 	movi	r3,1
   22c1c:	003ff406 	br	22bf0 <__udivsi3+0x34>

00022c20 <__umodsi3>:
   22c20:	2005883a 	mov	r2,r4
   22c24:	2900132e 	bgeu	r5,r4,22c74 <__umodsi3+0x54>
   22c28:	28001216 	blt	r5,zero,22c74 <__umodsi3+0x54>
   22c2c:	01800804 	movi	r6,32
   22c30:	00c00044 	movi	r3,1
   22c34:	00000206 	br	22c40 <__umodsi3+0x20>
   22c38:	30000c26 	beq	r6,zero,22c6c <__umodsi3+0x4c>
   22c3c:	28000516 	blt	r5,zero,22c54 <__umodsi3+0x34>
   22c40:	294b883a 	add	r5,r5,r5
   22c44:	31bfffc4 	addi	r6,r6,-1
   22c48:	18c7883a 	add	r3,r3,r3
   22c4c:	293ffa36 	bltu	r5,r4,22c38 <__umodsi3+0x18>
   22c50:	18000626 	beq	r3,zero,22c6c <__umodsi3+0x4c>
   22c54:	1806d07a 	srli	r3,r3,1
   22c58:	11400136 	bltu	r2,r5,22c60 <__umodsi3+0x40>
   22c5c:	1145c83a 	sub	r2,r2,r5
   22c60:	280ad07a 	srli	r5,r5,1
   22c64:	183ffb1e 	bne	r3,zero,22c54 <__umodsi3+0x34>
   22c68:	f800283a 	ret
   22c6c:	2005883a 	mov	r2,r4
   22c70:	f800283a 	ret
   22c74:	00c00044 	movi	r3,1
   22c78:	003ff606 	br	22c54 <__umodsi3+0x34>

00022c7c <__mulsi3>:
   22c7c:	0005883a 	mov	r2,zero
   22c80:	20000726 	beq	r4,zero,22ca0 <__mulsi3+0x24>
   22c84:	20c0004c 	andi	r3,r4,1
   22c88:	2008d07a 	srli	r4,r4,1
   22c8c:	18000126 	beq	r3,zero,22c94 <__mulsi3+0x18>
   22c90:	1145883a 	add	r2,r2,r5
   22c94:	294b883a 	add	r5,r5,r5
   22c98:	203ffa1e 	bne	r4,zero,22c84 <__mulsi3+0x8>
   22c9c:	f800283a 	ret
   22ca0:	f800283a 	ret

00022ca4 <__adddf3>:
   22ca4:	02000434 	movhi	r8,16
   22ca8:	423fffc4 	addi	r8,r8,-1
   22cac:	2806d53a 	srli	r3,r5,20
   22cb0:	3804d53a 	srli	r2,r7,20
   22cb4:	2a14703a 	and	r10,r5,r8
   22cb8:	3a12703a 	and	r9,r7,r8
   22cbc:	280ad7fa 	srli	r5,r5,31
   22cc0:	501490fa 	slli	r10,r10,3
   22cc4:	2018d77a 	srli	r12,r4,29
   22cc8:	481290fa 	slli	r9,r9,3
   22ccc:	3016d77a 	srli	r11,r6,29
   22cd0:	380ed7fa 	srli	r7,r7,31
   22cd4:	defffb04 	addi	sp,sp,-20
   22cd8:	dc800215 	stw	r18,8(sp)
   22cdc:	dc000015 	stw	r16,0(sp)
   22ce0:	1c81ffcc 	andi	r18,r3,2047
   22ce4:	1081ffcc 	andi	r2,r2,2047
   22ce8:	dfc00415 	stw	ra,16(sp)
   22cec:	dcc00315 	stw	r19,12(sp)
   22cf0:	dc400115 	stw	r17,4(sp)
   22cf4:	201c90fa 	slli	r14,r4,3
   22cf8:	301a90fa 	slli	r13,r6,3
   22cfc:	2821883a 	mov	r16,r5
   22d00:	6294b03a 	or	r10,r12,r10
   22d04:	5a52b03a 	or	r9,r11,r9
   22d08:	9087c83a 	sub	r3,r18,r2
   22d0c:	29c06126 	beq	r5,r7,22e94 <__adddf3+0x1f0>
   22d10:	00c0550e 	bge	zero,r3,22e68 <__adddf3+0x1c4>
   22d14:	10007326 	beq	r2,zero,22ee4 <__adddf3+0x240>
   22d18:	9081ffd8 	cmpnei	r2,r18,2047
   22d1c:	1000bd26 	beq	r2,zero,23014 <__adddf3+0x370>
   22d20:	4a402034 	orhi	r9,r9,128
   22d24:	18800e48 	cmpgei	r2,r3,57
   22d28:	1000ef1e 	bne	r2,zero,230e8 <__adddf3+0x444>
   22d2c:	18800808 	cmpgei	r2,r3,32
   22d30:	1001321e 	bne	r2,zero,231fc <__adddf3+0x558>
   22d34:	00800804 	movi	r2,32
   22d38:	10c5c83a 	sub	r2,r2,r3
   22d3c:	68c8d83a 	srl	r4,r13,r3
   22d40:	48a2983a 	sll	r17,r9,r2
   22d44:	689a983a 	sll	r13,r13,r2
   22d48:	48c6d83a 	srl	r3,r9,r3
   22d4c:	8922b03a 	or	r17,r17,r4
   22d50:	681ac03a 	cmpne	r13,r13,zero
   22d54:	8b62b03a 	or	r17,r17,r13
   22d58:	50d5c83a 	sub	r10,r10,r3
   22d5c:	7463c83a 	sub	r17,r14,r17
   22d60:	7451803a 	cmpltu	r8,r14,r17
   22d64:	5211c83a 	sub	r8,r10,r8
   22d68:	4080202c 	andhi	r2,r8,128
   22d6c:	10008d26 	beq	r2,zero,22fa4 <__adddf3+0x300>
   22d70:	02402034 	movhi	r9,128
   22d74:	4a7fffc4 	addi	r9,r9,-1
   22d78:	4266703a 	and	r19,r8,r9
   22d7c:	9800b326 	beq	r19,zero,2304c <__adddf3+0x3a8>
   22d80:	9809883a 	mov	r4,r19
   22d84:	00252900 	call	25290 <__clzsi2>
   22d88:	10fffe04 	addi	r3,r2,-8
   22d8c:	02000804 	movi	r8,32
   22d90:	40d1c83a 	sub	r8,r8,r3
   22d94:	8a10d83a 	srl	r8,r17,r8
   22d98:	98d2983a 	sll	r9,r19,r3
   22d9c:	88e2983a 	sll	r17,r17,r3
   22da0:	4250b03a 	or	r8,r8,r9
   22da4:	1c80b216 	blt	r3,r18,23070 <__adddf3+0x3cc>
   22da8:	1c87c83a 	sub	r3,r3,r18
   22dac:	19000044 	addi	r4,r3,1
   22db0:	20800808 	cmpgei	r2,r4,32
   22db4:	10006f1e 	bne	r2,zero,22f74 <__adddf3+0x2d0>
   22db8:	00800804 	movi	r2,32
   22dbc:	1105c83a 	sub	r2,r2,r4
   22dc0:	8906d83a 	srl	r3,r17,r4
   22dc4:	88a2983a 	sll	r17,r17,r2
   22dc8:	4084983a 	sll	r2,r8,r2
   22dcc:	4110d83a 	srl	r8,r8,r4
   22dd0:	8822c03a 	cmpne	r17,r17,zero
   22dd4:	10c4b03a 	or	r2,r2,r3
   22dd8:	1462b03a 	or	r17,r2,r17
   22ddc:	0025883a 	mov	r18,zero
   22de0:	888001cc 	andi	r2,r17,7
   22de4:	10000726 	beq	r2,zero,22e04 <__adddf3+0x160>
   22de8:	888003cc 	andi	r2,r17,15
   22dec:	10800120 	cmpeqi	r2,r2,4
   22df0:	1000041e 	bne	r2,zero,22e04 <__adddf3+0x160>
   22df4:	88c00104 	addi	r3,r17,4
   22df8:	1c63803a 	cmpltu	r17,r3,r17
   22dfc:	4451883a 	add	r8,r8,r17
   22e00:	1823883a 	mov	r17,r3
   22e04:	4080202c 	andhi	r2,r8,128
   22e08:	10006826 	beq	r2,zero,22fac <__adddf3+0x308>
   22e0c:	90c00044 	addi	r3,r18,1
   22e10:	1881ffe0 	cmpeqi	r2,r3,2047
   22e14:	18c1ffcc 	andi	r3,r3,2047
   22e18:	10007a1e 	bne	r2,zero,23004 <__adddf3+0x360>
   22e1c:	00bfe034 	movhi	r2,65408
   22e20:	10bfffc4 	addi	r2,r2,-1
   22e24:	4090703a 	and	r8,r8,r2
   22e28:	4004977a 	slli	r2,r8,29
   22e2c:	4010927a 	slli	r8,r8,9
   22e30:	8822d0fa 	srli	r17,r17,3
   22e34:	4010d33a 	srli	r8,r8,12
   22e38:	1444b03a 	or	r2,r2,r17
   22e3c:	1806953a 	slli	r3,r3,20
   22e40:	802097fa 	slli	r16,r16,31
   22e44:	1a06b03a 	or	r3,r3,r8
   22e48:	1c06b03a 	or	r3,r3,r16
   22e4c:	dfc00417 	ldw	ra,16(sp)
   22e50:	dcc00317 	ldw	r19,12(sp)
   22e54:	dc800217 	ldw	r18,8(sp)
   22e58:	dc400117 	ldw	r17,4(sp)
   22e5c:	dc000017 	ldw	r16,0(sp)
   22e60:	dec00504 	addi	sp,sp,20
   22e64:	f800283a 	ret
   22e68:	18002626 	beq	r3,zero,22f04 <__adddf3+0x260>
   22e6c:	1487c83a 	sub	r3,r2,r18
   22e70:	9000ba1e 	bne	r18,zero,2315c <__adddf3+0x4b8>
   22e74:	5388b03a 	or	r4,r10,r14
   22e78:	20011826 	beq	r4,zero,232dc <__adddf3+0x638>
   22e7c:	193fffc4 	addi	r4,r3,-1
   22e80:	20015726 	beq	r4,zero,233e0 <__adddf3+0x73c>
   22e84:	18c1ffd8 	cmpnei	r3,r3,2047
   22e88:	18013026 	beq	r3,zero,2334c <__adddf3+0x6a8>
   22e8c:	2007883a 	mov	r3,r4
   22e90:	0000b506 	br	23168 <__adddf3+0x4c4>
   22e94:	00c07b0e 	bge	zero,r3,23084 <__adddf3+0x3e0>
   22e98:	10002e26 	beq	r2,zero,22f54 <__adddf3+0x2b0>
   22e9c:	9081ffd8 	cmpnei	r2,r18,2047
   22ea0:	10005c26 	beq	r2,zero,23014 <__adddf3+0x370>
   22ea4:	4a402034 	orhi	r9,r9,128
   22ea8:	18800e48 	cmpgei	r2,r3,57
   22eac:	10004b1e 	bne	r2,zero,22fdc <__adddf3+0x338>
   22eb0:	18800808 	cmpgei	r2,r3,32
   22eb4:	1000ec26 	beq	r2,zero,23268 <__adddf3+0x5c4>
   22eb8:	1c7ff804 	addi	r17,r3,-32
   22ebc:	19000820 	cmpeqi	r4,r3,32
   22ec0:	4c44d83a 	srl	r2,r9,r17
   22ec4:	2000041e 	bne	r4,zero,22ed8 <__adddf3+0x234>
   22ec8:	01001004 	movi	r4,64
   22ecc:	20c7c83a 	sub	r3,r4,r3
   22ed0:	48d2983a 	sll	r9,r9,r3
   22ed4:	6a5ab03a 	or	r13,r13,r9
   22ed8:	6822c03a 	cmpne	r17,r13,zero
   22edc:	88a2b03a 	or	r17,r17,r2
   22ee0:	00004006 	br	22fe4 <__adddf3+0x340>
   22ee4:	4b44b03a 	or	r2,r9,r13
   22ee8:	10008226 	beq	r2,zero,230f4 <__adddf3+0x450>
   22eec:	18bfffc4 	addi	r2,r3,-1
   22ef0:	10011026 	beq	r2,zero,23334 <__adddf3+0x690>
   22ef4:	18c1ffd8 	cmpnei	r3,r3,2047
   22ef8:	18004626 	beq	r3,zero,23014 <__adddf3+0x370>
   22efc:	1007883a 	mov	r3,r2
   22f00:	003f8806 	br	22d24 <__adddf3+0x80>
   22f04:	90800044 	addi	r2,r18,1
   22f08:	1081ff8c 	andi	r2,r2,2046
   22f0c:	1000a51e 	bne	r2,zero,231a4 <__adddf3+0x500>
   22f10:	538ab03a 	or	r5,r10,r14
   22f14:	4b44b03a 	or	r2,r9,r13
   22f18:	9000f81e 	bne	r18,zero,232fc <__adddf3+0x658>
   22f1c:	28013726 	beq	r5,zero,233fc <__adddf3+0x758>
   22f20:	10011226 	beq	r2,zero,2336c <__adddf3+0x6c8>
   22f24:	7363c83a 	sub	r17,r14,r13
   22f28:	7445803a 	cmpltu	r2,r14,r17
   22f2c:	5251c83a 	sub	r8,r10,r9
   22f30:	4091c83a 	sub	r8,r8,r2
   22f34:	4080202c 	andhi	r2,r8,128
   22f38:	10018f26 	beq	r2,zero,23578 <__adddf3+0x8d4>
   22f3c:	6ba3c83a 	sub	r17,r13,r14
   22f40:	4a95c83a 	sub	r10,r9,r10
   22f44:	6c51803a 	cmpltu	r8,r13,r17
   22f48:	5211c83a 	sub	r8,r10,r8
   22f4c:	3821883a 	mov	r16,r7
   22f50:	003fa306 	br	22de0 <__adddf3+0x13c>
   22f54:	4b44b03a 	or	r2,r9,r13
   22f58:	10006626 	beq	r2,zero,230f4 <__adddf3+0x450>
   22f5c:	18bfffc4 	addi	r2,r3,-1
   22f60:	1000ec26 	beq	r2,zero,23314 <__adddf3+0x670>
   22f64:	18c1ffd8 	cmpnei	r3,r3,2047
   22f68:	18012d26 	beq	r3,zero,23420 <__adddf3+0x77c>
   22f6c:	1007883a 	mov	r3,r2
   22f70:	003fcd06 	br	22ea8 <__adddf3+0x204>
   22f74:	18fff844 	addi	r3,r3,-31
   22f78:	20800820 	cmpeqi	r2,r4,32
   22f7c:	40c6d83a 	srl	r3,r8,r3
   22f80:	1000041e 	bne	r2,zero,22f94 <__adddf3+0x2f0>
   22f84:	00801004 	movi	r2,64
   22f88:	1109c83a 	sub	r4,r2,r4
   22f8c:	4110983a 	sll	r8,r8,r4
   22f90:	8a22b03a 	or	r17,r17,r8
   22f94:	8822c03a 	cmpne	r17,r17,zero
   22f98:	88e2b03a 	or	r17,r17,r3
   22f9c:	0011883a 	mov	r8,zero
   22fa0:	0025883a 	mov	r18,zero
   22fa4:	888001cc 	andi	r2,r17,7
   22fa8:	103f8f1e 	bne	r2,zero,22de8 <__adddf3+0x144>
   22fac:	8822d0fa 	srli	r17,r17,3
   22fb0:	4004977a 	slli	r2,r8,29
   22fb4:	4014d0fa 	srli	r10,r8,3
   22fb8:	9007883a 	mov	r3,r18
   22fbc:	8884b03a 	or	r2,r17,r2
   22fc0:	1901ffe0 	cmpeqi	r4,r3,2047
   22fc4:	2000191e 	bne	r4,zero,2302c <__adddf3+0x388>
   22fc8:	02000434 	movhi	r8,16
   22fcc:	423fffc4 	addi	r8,r8,-1
   22fd0:	5210703a 	and	r8,r10,r8
   22fd4:	18c1ffcc 	andi	r3,r3,2047
   22fd8:	003f9806 	br	22e3c <__adddf3+0x198>
   22fdc:	4b62b03a 	or	r17,r9,r13
   22fe0:	8822c03a 	cmpne	r17,r17,zero
   22fe4:	8ba3883a 	add	r17,r17,r14
   22fe8:	8b91803a 	cmpltu	r8,r17,r14
   22fec:	4291883a 	add	r8,r8,r10
   22ff0:	4080202c 	andhi	r2,r8,128
   22ff4:	103feb26 	beq	r2,zero,22fa4 <__adddf3+0x300>
   22ff8:	94800044 	addi	r18,r18,1
   22ffc:	9081ffe0 	cmpeqi	r2,r18,2047
   23000:	10007426 	beq	r2,zero,231d4 <__adddf3+0x530>
   23004:	00c1ffc4 	movi	r3,2047
   23008:	0011883a 	mov	r8,zero
   2300c:	0005883a 	mov	r2,zero
   23010:	003f8a06 	br	22e3c <__adddf3+0x198>
   23014:	500a977a 	slli	r5,r10,29
   23018:	00c80034 	movhi	r3,8192
   2301c:	18ffffc4 	addi	r3,r3,-1
   23020:	5014d0fa 	srli	r10,r10,3
   23024:	20c4703a 	and	r2,r4,r3
   23028:	1144b03a 	or	r2,r2,r5
   2302c:	1286b03a 	or	r3,r2,r10
   23030:	18015426 	beq	r3,zero,23584 <__adddf3+0x8e0>
   23034:	00c00434 	movhi	r3,16
   23038:	18ffffc4 	addi	r3,r3,-1
   2303c:	52000234 	orhi	r8,r10,8
   23040:	40d0703a 	and	r8,r8,r3
   23044:	00c1ffc4 	movi	r3,2047
   23048:	003f7c06 	br	22e3c <__adddf3+0x198>
   2304c:	8809883a 	mov	r4,r17
   23050:	00252900 	call	25290 <__clzsi2>
   23054:	10c00604 	addi	r3,r2,24
   23058:	19000808 	cmpgei	r4,r3,32
   2305c:	203f4b26 	beq	r4,zero,22d8c <__adddf3+0xe8>
   23060:	123ffe04 	addi	r8,r2,-8
   23064:	8a10983a 	sll	r8,r17,r8
   23068:	0023883a 	mov	r17,zero
   2306c:	1cbf4e0e 	bge	r3,r18,22da8 <__adddf3+0x104>
   23070:	00bfe034 	movhi	r2,65408
   23074:	10bfffc4 	addi	r2,r2,-1
   23078:	90e5c83a 	sub	r18,r18,r3
   2307c:	4090703a 	and	r8,r8,r2
   23080:	003f5706 	br	22de0 <__adddf3+0x13c>
   23084:	18002226 	beq	r3,zero,23110 <__adddf3+0x46c>
   23088:	1487c83a 	sub	r3,r2,r18
   2308c:	90006e26 	beq	r18,zero,23248 <__adddf3+0x5a4>
   23090:	1101ffd8 	cmpnei	r4,r2,2047
   23094:	2000e926 	beq	r4,zero,2343c <__adddf3+0x798>
   23098:	52802034 	orhi	r10,r10,128
   2309c:	19000e48 	cmpgei	r4,r3,57
   230a0:	2000b91e 	bne	r4,zero,23388 <__adddf3+0x6e4>
   230a4:	19000808 	cmpgei	r4,r3,32
   230a8:	2001101e 	bne	r4,zero,234ec <__adddf3+0x848>
   230ac:	01000804 	movi	r4,32
   230b0:	20c9c83a 	sub	r4,r4,r3
   230b4:	5122983a 	sll	r17,r10,r4
   230b8:	70cad83a 	srl	r5,r14,r3
   230bc:	7108983a 	sll	r4,r14,r4
   230c0:	50d4d83a 	srl	r10,r10,r3
   230c4:	8962b03a 	or	r17,r17,r5
   230c8:	2008c03a 	cmpne	r4,r4,zero
   230cc:	8922b03a 	or	r17,r17,r4
   230d0:	4a93883a 	add	r9,r9,r10
   230d4:	8b63883a 	add	r17,r17,r13
   230d8:	8b51803a 	cmpltu	r8,r17,r13
   230dc:	4251883a 	add	r8,r8,r9
   230e0:	1025883a 	mov	r18,r2
   230e4:	003fc206 	br	22ff0 <__adddf3+0x34c>
   230e8:	4b62b03a 	or	r17,r9,r13
   230ec:	8822c03a 	cmpne	r17,r17,zero
   230f0:	003f1a06 	br	22d5c <__adddf3+0xb8>
   230f4:	500c977a 	slli	r6,r10,29
   230f8:	01480034 	movhi	r5,8192
   230fc:	297fffc4 	addi	r5,r5,-1
   23100:	2144703a 	and	r2,r4,r5
   23104:	5014d0fa 	srli	r10,r10,3
   23108:	1184b03a 	or	r2,r2,r6
   2310c:	003fac06 	br	22fc0 <__adddf3+0x31c>
   23110:	90800044 	addi	r2,r18,1
   23114:	1141ff8c 	andi	r5,r2,2046
   23118:	28005e1e 	bne	r5,zero,23294 <__adddf3+0x5f0>
   2311c:	5384b03a 	or	r2,r10,r14
   23120:	9000a71e 	bne	r18,zero,233c0 <__adddf3+0x71c>
   23124:	1000e526 	beq	r2,zero,234bc <__adddf3+0x818>
   23128:	4b44b03a 	or	r2,r9,r13
   2312c:	10008f26 	beq	r2,zero,2336c <__adddf3+0x6c8>
   23130:	7363883a 	add	r17,r14,r13
   23134:	5255883a 	add	r10,r10,r9
   23138:	8b91803a 	cmpltu	r8,r17,r14
   2313c:	5211883a 	add	r8,r10,r8
   23140:	4080202c 	andhi	r2,r8,128
   23144:	103f9726 	beq	r2,zero,22fa4 <__adddf3+0x300>
   23148:	00bfe034 	movhi	r2,65408
   2314c:	10bfffc4 	addi	r2,r2,-1
   23150:	4090703a 	and	r8,r8,r2
   23154:	04800044 	movi	r18,1
   23158:	003f9206 	br	22fa4 <__adddf3+0x300>
   2315c:	1101ffd8 	cmpnei	r4,r2,2047
   23160:	20007a26 	beq	r4,zero,2334c <__adddf3+0x6a8>
   23164:	52802034 	orhi	r10,r10,128
   23168:	19000e48 	cmpgei	r4,r3,57
   2316c:	20002e1e 	bne	r4,zero,23228 <__adddf3+0x584>
   23170:	19000808 	cmpgei	r4,r3,32
   23174:	2000871e 	bne	r4,zero,23394 <__adddf3+0x6f0>
   23178:	01000804 	movi	r4,32
   2317c:	20c9c83a 	sub	r4,r4,r3
   23180:	5122983a 	sll	r17,r10,r4
   23184:	70cad83a 	srl	r5,r14,r3
   23188:	711c983a 	sll	r14,r14,r4
   2318c:	50d4d83a 	srl	r10,r10,r3
   23190:	8962b03a 	or	r17,r17,r5
   23194:	701cc03a 	cmpne	r14,r14,zero
   23198:	8ba2b03a 	or	r17,r17,r14
   2319c:	4a93c83a 	sub	r9,r9,r10
   231a0:	00002306 	br	23230 <__adddf3+0x58c>
   231a4:	7363c83a 	sub	r17,r14,r13
   231a8:	5267c83a 	sub	r19,r10,r9
   231ac:	7451803a 	cmpltu	r8,r14,r17
   231b0:	9a27c83a 	sub	r19,r19,r8
   231b4:	9880202c 	andhi	r2,r19,128
   231b8:	1000421e 	bne	r2,zero,232c4 <__adddf3+0x620>
   231bc:	8cc4b03a 	or	r2,r17,r19
   231c0:	103eee1e 	bne	r2,zero,22d7c <__adddf3+0xd8>
   231c4:	0015883a 	mov	r10,zero
   231c8:	0021883a 	mov	r16,zero
   231cc:	003f7e06 	br	22fc8 <__adddf3+0x324>
   231d0:	04800084 	movi	r18,2
   231d4:	00bfe034 	movhi	r2,65408
   231d8:	10bfffc4 	addi	r2,r2,-1
   231dc:	8806d07a 	srli	r3,r17,1
   231e0:	4090703a 	and	r8,r8,r2
   231e4:	400497fa 	slli	r2,r8,31
   231e8:	8c40004c 	andi	r17,r17,1
   231ec:	1c62b03a 	or	r17,r3,r17
   231f0:	4010d07a 	srli	r8,r8,1
   231f4:	1462b03a 	or	r17,r2,r17
   231f8:	003ef906 	br	22de0 <__adddf3+0x13c>
   231fc:	1c7ff804 	addi	r17,r3,-32
   23200:	19000820 	cmpeqi	r4,r3,32
   23204:	4c44d83a 	srl	r2,r9,r17
   23208:	2000041e 	bne	r4,zero,2321c <__adddf3+0x578>
   2320c:	01001004 	movi	r4,64
   23210:	20c7c83a 	sub	r3,r4,r3
   23214:	48d2983a 	sll	r9,r9,r3
   23218:	6a5ab03a 	or	r13,r13,r9
   2321c:	6822c03a 	cmpne	r17,r13,zero
   23220:	88a2b03a 	or	r17,r17,r2
   23224:	003ecd06 	br	22d5c <__adddf3+0xb8>
   23228:	5394b03a 	or	r10,r10,r14
   2322c:	5022c03a 	cmpne	r17,r10,zero
   23230:	6c63c83a 	sub	r17,r13,r17
   23234:	6c51803a 	cmpltu	r8,r13,r17
   23238:	4a11c83a 	sub	r8,r9,r8
   2323c:	3821883a 	mov	r16,r7
   23240:	1025883a 	mov	r18,r2
   23244:	003ec806 	br	22d68 <__adddf3+0xc4>
   23248:	5388b03a 	or	r4,r10,r14
   2324c:	20008226 	beq	r4,zero,23458 <__adddf3+0x7b4>
   23250:	193fffc4 	addi	r4,r3,-1
   23254:	2000b026 	beq	r4,zero,23518 <__adddf3+0x874>
   23258:	18c1ffd8 	cmpnei	r3,r3,2047
   2325c:	18007726 	beq	r3,zero,2343c <__adddf3+0x798>
   23260:	2007883a 	mov	r3,r4
   23264:	003f8d06 	br	2309c <__adddf3+0x3f8>
   23268:	00800804 	movi	r2,32
   2326c:	10c5c83a 	sub	r2,r2,r3
   23270:	68c8d83a 	srl	r4,r13,r3
   23274:	48a2983a 	sll	r17,r9,r2
   23278:	689a983a 	sll	r13,r13,r2
   2327c:	48c6d83a 	srl	r3,r9,r3
   23280:	8922b03a 	or	r17,r17,r4
   23284:	681ac03a 	cmpne	r13,r13,zero
   23288:	8b62b03a 	or	r17,r17,r13
   2328c:	50d5883a 	add	r10,r10,r3
   23290:	003f5406 	br	22fe4 <__adddf3+0x340>
   23294:	10c1ffe0 	cmpeqi	r3,r2,2047
   23298:	183f5a1e 	bne	r3,zero,23004 <__adddf3+0x360>
   2329c:	7351883a 	add	r8,r14,r13
   232a0:	4387803a 	cmpltu	r3,r8,r14
   232a4:	5255883a 	add	r10,r10,r9
   232a8:	50c7883a 	add	r3,r10,r3
   232ac:	401ad07a 	srli	r13,r8,1
   232b0:	182297fa 	slli	r17,r3,31
   232b4:	1810d07a 	srli	r8,r3,1
   232b8:	1025883a 	mov	r18,r2
   232bc:	8b62b03a 	or	r17,r17,r13
   232c0:	003f3806 	br	22fa4 <__adddf3+0x300>
   232c4:	6ba3c83a 	sub	r17,r13,r14
   232c8:	4a93c83a 	sub	r9,r9,r10
   232cc:	6c51803a 	cmpltu	r8,r13,r17
   232d0:	4a27c83a 	sub	r19,r9,r8
   232d4:	3821883a 	mov	r16,r7
   232d8:	003ea806 	br	22d7c <__adddf3+0xd8>
   232dc:	480a977a 	slli	r5,r9,29
   232e0:	01080034 	movhi	r4,8192
   232e4:	213fffc4 	addi	r4,r4,-1
   232e8:	3104703a 	and	r2,r6,r4
   232ec:	4814d0fa 	srli	r10,r9,3
   232f0:	1144b03a 	or	r2,r2,r5
   232f4:	3821883a 	mov	r16,r7
   232f8:	003f3106 	br	22fc0 <__adddf3+0x31c>
   232fc:	28005d1e 	bne	r5,zero,23474 <__adddf3+0x7d0>
   23300:	1000121e 	bne	r2,zero,2334c <__adddf3+0x6a8>
   23304:	0021883a 	mov	r16,zero
   23308:	4015883a 	mov	r10,r8
   2330c:	00bfffc4 	movi	r2,-1
   23310:	003f4806 	br	23034 <__adddf3+0x390>
   23314:	7363883a 	add	r17,r14,r13
   23318:	5255883a 	add	r10,r10,r9
   2331c:	8b91803a 	cmpltu	r8,r17,r14
   23320:	5211883a 	add	r8,r10,r8
   23324:	4080202c 	andhi	r2,r8,128
   23328:	103fa91e 	bne	r2,zero,231d0 <__adddf3+0x52c>
   2332c:	04800044 	movi	r18,1
   23330:	003f1c06 	br	22fa4 <__adddf3+0x300>
   23334:	7363c83a 	sub	r17,r14,r13
   23338:	5255c83a 	sub	r10,r10,r9
   2333c:	7451803a 	cmpltu	r8,r14,r17
   23340:	5211c83a 	sub	r8,r10,r8
   23344:	04800044 	movi	r18,1
   23348:	003e8706 	br	22d68 <__adddf3+0xc4>
   2334c:	4806977a 	slli	r3,r9,29
   23350:	00880034 	movhi	r2,8192
   23354:	10bfffc4 	addi	r2,r2,-1
   23358:	3084703a 	and	r2,r6,r2
   2335c:	4814d0fa 	srli	r10,r9,3
   23360:	10c4b03a 	or	r2,r2,r3
   23364:	3821883a 	mov	r16,r7
   23368:	003f3006 	br	2302c <__adddf3+0x388>
   2336c:	500a977a 	slli	r5,r10,29
   23370:	00880034 	movhi	r2,8192
   23374:	10bfffc4 	addi	r2,r2,-1
   23378:	2084703a 	and	r2,r4,r2
   2337c:	5014d0fa 	srli	r10,r10,3
   23380:	1144b03a 	or	r2,r2,r5
   23384:	003f1006 	br	22fc8 <__adddf3+0x324>
   23388:	5394b03a 	or	r10,r10,r14
   2338c:	5022c03a 	cmpne	r17,r10,zero
   23390:	003f5006 	br	230d4 <__adddf3+0x430>
   23394:	1c7ff804 	addi	r17,r3,-32
   23398:	19400820 	cmpeqi	r5,r3,32
   2339c:	5448d83a 	srl	r4,r10,r17
   233a0:	2800041e 	bne	r5,zero,233b4 <__adddf3+0x710>
   233a4:	01401004 	movi	r5,64
   233a8:	28c7c83a 	sub	r3,r5,r3
   233ac:	50d4983a 	sll	r10,r10,r3
   233b0:	729cb03a 	or	r14,r14,r10
   233b4:	7022c03a 	cmpne	r17,r14,zero
   233b8:	8922b03a 	or	r17,r17,r4
   233bc:	003f9c06 	br	23230 <__adddf3+0x58c>
   233c0:	10005a1e 	bne	r2,zero,2352c <__adddf3+0x888>
   233c4:	4804977a 	slli	r2,r9,29
   233c8:	00c80034 	movhi	r3,8192
   233cc:	18ffffc4 	addi	r3,r3,-1
   233d0:	30cc703a 	and	r6,r6,r3
   233d4:	4814d0fa 	srli	r10,r9,3
   233d8:	1184b03a 	or	r2,r2,r6
   233dc:	003f1306 	br	2302c <__adddf3+0x388>
   233e0:	6ba3c83a 	sub	r17,r13,r14
   233e4:	4a95c83a 	sub	r10,r9,r10
   233e8:	6c51803a 	cmpltu	r8,r13,r17
   233ec:	5211c83a 	sub	r8,r10,r8
   233f0:	3821883a 	mov	r16,r7
   233f4:	04800044 	movi	r18,1
   233f8:	003e5b06 	br	22d68 <__adddf3+0xc4>
   233fc:	103f7126 	beq	r2,zero,231c4 <__adddf3+0x520>
   23400:	4808977a 	slli	r4,r9,29
   23404:	00880034 	movhi	r2,8192
   23408:	10bfffc4 	addi	r2,r2,-1
   2340c:	3084703a 	and	r2,r6,r2
   23410:	4814d0fa 	srli	r10,r9,3
   23414:	1104b03a 	or	r2,r2,r4
   23418:	3821883a 	mov	r16,r7
   2341c:	003eea06 	br	22fc8 <__adddf3+0x324>
   23420:	5006977a 	slli	r3,r10,29
   23424:	00880034 	movhi	r2,8192
   23428:	10bfffc4 	addi	r2,r2,-1
   2342c:	2084703a 	and	r2,r4,r2
   23430:	5014d0fa 	srli	r10,r10,3
   23434:	10c4b03a 	or	r2,r2,r3
   23438:	003efc06 	br	2302c <__adddf3+0x388>
   2343c:	4806977a 	slli	r3,r9,29
   23440:	00880034 	movhi	r2,8192
   23444:	10bfffc4 	addi	r2,r2,-1
   23448:	3084703a 	and	r2,r6,r2
   2344c:	4814d0fa 	srli	r10,r9,3
   23450:	10c4b03a 	or	r2,r2,r3
   23454:	003ef506 	br	2302c <__adddf3+0x388>
   23458:	4808977a 	slli	r4,r9,29
   2345c:	00880034 	movhi	r2,8192
   23460:	10bfffc4 	addi	r2,r2,-1
   23464:	3084703a 	and	r2,r6,r2
   23468:	4814d0fa 	srli	r10,r9,3
   2346c:	1104b03a 	or	r2,r2,r4
   23470:	003ed306 	br	22fc0 <__adddf3+0x31c>
   23474:	500a977a 	slli	r5,r10,29
   23478:	5014d0fa 	srli	r10,r10,3
   2347c:	10001626 	beq	r2,zero,234d8 <__adddf3+0x834>
   23480:	00c80034 	movhi	r3,8192
   23484:	18ffffc4 	addi	r3,r3,-1
   23488:	20c4703a 	and	r2,r4,r3
   2348c:	5100022c 	andhi	r4,r10,8
   23490:	1144b03a 	or	r2,r2,r5
   23494:	203ee526 	beq	r4,zero,2302c <__adddf3+0x388>
   23498:	4808d0fa 	srli	r4,r9,3
   2349c:	2140022c 	andhi	r5,r4,8
   234a0:	283ee21e 	bne	r5,zero,2302c <__adddf3+0x388>
   234a4:	4812977a 	slli	r9,r9,29
   234a8:	30c4703a 	and	r2,r6,r3
   234ac:	3821883a 	mov	r16,r7
   234b0:	1244b03a 	or	r2,r2,r9
   234b4:	2015883a 	mov	r10,r4
   234b8:	003edc06 	br	2302c <__adddf3+0x388>
   234bc:	4804977a 	slli	r2,r9,29
   234c0:	01080034 	movhi	r4,8192
   234c4:	213fffc4 	addi	r4,r4,-1
   234c8:	310c703a 	and	r6,r6,r4
   234cc:	4814d0fa 	srli	r10,r9,3
   234d0:	1184b03a 	or	r2,r2,r6
   234d4:	003ebc06 	br	22fc8 <__adddf3+0x324>
   234d8:	00880034 	movhi	r2,8192
   234dc:	10bfffc4 	addi	r2,r2,-1
   234e0:	2084703a 	and	r2,r4,r2
   234e4:	1144b03a 	or	r2,r2,r5
   234e8:	003ed006 	br	2302c <__adddf3+0x388>
   234ec:	193ff804 	addi	r4,r3,-32
   234f0:	19400820 	cmpeqi	r5,r3,32
   234f4:	5108d83a 	srl	r4,r10,r4
   234f8:	2800041e 	bne	r5,zero,2350c <__adddf3+0x868>
   234fc:	01401004 	movi	r5,64
   23500:	28c7c83a 	sub	r3,r5,r3
   23504:	50d4983a 	sll	r10,r10,r3
   23508:	729cb03a 	or	r14,r14,r10
   2350c:	7022c03a 	cmpne	r17,r14,zero
   23510:	8922b03a 	or	r17,r17,r4
   23514:	003eef06 	br	230d4 <__adddf3+0x430>
   23518:	7363883a 	add	r17,r14,r13
   2351c:	5255883a 	add	r10,r10,r9
   23520:	8b51803a 	cmpltu	r8,r17,r13
   23524:	5211883a 	add	r8,r10,r8
   23528:	003f7e06 	br	23324 <__adddf3+0x680>
   2352c:	4b50b03a 	or	r8,r9,r13
   23530:	500a977a 	slli	r5,r10,29
   23534:	5014d0fa 	srli	r10,r10,3
   23538:	403fe726 	beq	r8,zero,234d8 <__adddf3+0x834>
   2353c:	00c80034 	movhi	r3,8192
   23540:	18ffffc4 	addi	r3,r3,-1
   23544:	20c4703a 	and	r2,r4,r3
   23548:	5100022c 	andhi	r4,r10,8
   2354c:	1144b03a 	or	r2,r2,r5
   23550:	203eb626 	beq	r4,zero,2302c <__adddf3+0x388>
   23554:	4808d0fa 	srli	r4,r9,3
   23558:	2140022c 	andhi	r5,r4,8
   2355c:	283eb31e 	bne	r5,zero,2302c <__adddf3+0x388>
   23560:	4804977a 	slli	r2,r9,29
   23564:	30cc703a 	and	r6,r6,r3
   23568:	3821883a 	mov	r16,r7
   2356c:	3084b03a 	or	r2,r6,r2
   23570:	2015883a 	mov	r10,r4
   23574:	003ead06 	br	2302c <__adddf3+0x388>
   23578:	8a04b03a 	or	r2,r17,r8
   2357c:	103f1126 	beq	r2,zero,231c4 <__adddf3+0x520>
   23580:	003e8806 	br	22fa4 <__adddf3+0x300>
   23584:	0005883a 	mov	r2,zero
   23588:	00c1ffc4 	movi	r3,2047
   2358c:	0011883a 	mov	r8,zero
   23590:	003e2a06 	br	22e3c <__adddf3+0x198>

00023594 <__divdf3>:
   23594:	2810d53a 	srli	r8,r5,20
   23598:	defff004 	addi	sp,sp,-64
   2359c:	dc000615 	stw	r16,24(sp)
   235a0:	04000434 	movhi	r16,16
   235a4:	df000e15 	stw	fp,56(sp)
   235a8:	ddc00d15 	stw	r23,52(sp)
   235ac:	dd800c15 	stw	r22,48(sp)
   235b0:	dd000a15 	stw	r20,40(sp)
   235b4:	843fffc4 	addi	r16,r16,-1
   235b8:	dfc00f15 	stw	ra,60(sp)
   235bc:	dd400b15 	stw	r21,44(sp)
   235c0:	dcc00915 	stw	r19,36(sp)
   235c4:	dc800815 	stw	r18,32(sp)
   235c8:	dc400715 	stw	r17,28(sp)
   235cc:	4201ffcc 	andi	r8,r8,2047
   235d0:	282ed7fa 	srli	r23,r5,31
   235d4:	3039883a 	mov	fp,r6
   235d8:	382d883a 	mov	r22,r7
   235dc:	2029883a 	mov	r20,r4
   235e0:	2c20703a 	and	r16,r5,r16
   235e4:	40006826 	beq	r8,zero,23788 <__divdf3+0x1f4>
   235e8:	4081ffe0 	cmpeqi	r2,r8,2047
   235ec:	1000791e 	bne	r2,zero,237d4 <__divdf3+0x240>
   235f0:	2026d77a 	srli	r19,r4,29
   235f4:	800a90fa 	slli	r5,r16,3
   235f8:	202890fa 	slli	r20,r4,3
   235fc:	44bf0044 	addi	r18,r8,-1023
   23600:	994ab03a 	or	r5,r19,r5
   23604:	2cc02034 	orhi	r19,r5,128
   23608:	0021883a 	mov	r16,zero
   2360c:	0023883a 	mov	r17,zero
   23610:	b010d53a 	srli	r8,r22,20
   23614:	00c00434 	movhi	r3,16
   23618:	18ffffc4 	addi	r3,r3,-1
   2361c:	4201ffcc 	andi	r8,r8,2047
   23620:	b02ad7fa 	srli	r21,r22,31
   23624:	b0ec703a 	and	r22,r22,r3
   23628:	40004626 	beq	r8,zero,23744 <__divdf3+0x1b0>
   2362c:	4081ffe0 	cmpeqi	r2,r8,2047
   23630:	10006f1e 	bne	r2,zero,237f0 <__divdf3+0x25c>
   23634:	b00690fa 	slli	r3,r22,3
   23638:	e004d77a 	srli	r2,fp,29
   2363c:	e01290fa 	slli	r9,fp,3
   23640:	423f0044 	addi	r8,r8,-1023
   23644:	10c6b03a 	or	r3,r2,r3
   23648:	1d802034 	orhi	r22,r3,128
   2364c:	9225c83a 	sub	r18,r18,r8
   23650:	0007883a 	mov	r3,zero
   23654:	80800428 	cmpgeui	r2,r16,16
   23658:	bd4ef03a 	xor	r7,r23,r21
   2365c:	1000a71e 	bne	r2,zero,238fc <__divdf3+0x368>
   23660:	800c90ba 	slli	r6,r16,2
   23664:	008000b4 	movhi	r2,2
   23668:	3085883a 	add	r2,r6,r2
   2366c:	108d9d17 	ldw	r2,13940(r2)
   23670:	1000683a 	jmp	r2
   23674:	000238fc 	xorhi	zero,zero,2275
   23678:	00023720 	cmpeqi	zero,zero,2268
   2367c:	000236d0 	cmplti	zero,zero,2267
   23680:	00023730 	cmpltui	zero,zero,2268
   23684:	000236d0 	cmplti	zero,zero,2267
   23688:	000238a0 	cmpeqi	zero,zero,2274
   2368c:	000236d0 	cmplti	zero,zero,2267
   23690:	00023730 	cmpltui	zero,zero,2268
   23694:	00023720 	cmpeqi	zero,zero,2268
   23698:	00023720 	cmpeqi	zero,zero,2268
   2369c:	000238a0 	cmpeqi	zero,zero,2274
   236a0:	00023730 	cmpltui	zero,zero,2268
   236a4:	000236b4 	movhi	zero,2266
   236a8:	000236b4 	movhi	zero,2266
   236ac:	000236b4 	movhi	zero,2266
   236b0:	000238b8 	rdprs	zero,zero,2274
   236b4:	b80f883a 	mov	r7,r23
   236b8:	888000a0 	cmpeqi	r2,r17,2
   236bc:	1000181e 	bne	r2,zero,23720 <__divdf3+0x18c>
   236c0:	888000e0 	cmpeqi	r2,r17,3
   236c4:	1001f61e 	bne	r2,zero,23ea0 <__divdf3+0x90c>
   236c8:	88800060 	cmpeqi	r2,r17,1
   236cc:	10006126 	beq	r2,zero,23854 <__divdf3+0x2c0>
   236d0:	0007883a 	mov	r3,zero
   236d4:	000b883a 	mov	r5,zero
   236d8:	0029883a 	mov	r20,zero
   236dc:	1806953a 	slli	r3,r3,20
   236e0:	380e97fa 	slli	r7,r7,31
   236e4:	a005883a 	mov	r2,r20
   236e8:	1946b03a 	or	r3,r3,r5
   236ec:	19c6b03a 	or	r3,r3,r7
   236f0:	dfc00f17 	ldw	ra,60(sp)
   236f4:	df000e17 	ldw	fp,56(sp)
   236f8:	ddc00d17 	ldw	r23,52(sp)
   236fc:	dd800c17 	ldw	r22,48(sp)
   23700:	dd400b17 	ldw	r21,44(sp)
   23704:	dd000a17 	ldw	r20,40(sp)
   23708:	dcc00917 	ldw	r19,36(sp)
   2370c:	dc800817 	ldw	r18,32(sp)
   23710:	dc400717 	ldw	r17,28(sp)
   23714:	dc000617 	ldw	r16,24(sp)
   23718:	dec01004 	addi	sp,sp,64
   2371c:	f800283a 	ret
   23720:	00c1ffc4 	movi	r3,2047
   23724:	000b883a 	mov	r5,zero
   23728:	0029883a 	mov	r20,zero
   2372c:	003feb06 	br	236dc <__divdf3+0x148>
   23730:	a80f883a 	mov	r7,r21
   23734:	b027883a 	mov	r19,r22
   23738:	4829883a 	mov	r20,r9
   2373c:	1823883a 	mov	r17,r3
   23740:	003fdd06 	br	236b8 <__divdf3+0x124>
   23744:	b712b03a 	or	r9,r22,fp
   23748:	48003e26 	beq	r9,zero,23844 <__divdf3+0x2b0>
   2374c:	b0017726 	beq	r22,zero,23d2c <__divdf3+0x798>
   23750:	b009883a 	mov	r4,r22
   23754:	00252900 	call	25290 <__clzsi2>
   23758:	117ffd44 	addi	r5,r2,-11
   2375c:	01000744 	movi	r4,29
   23760:	127ffe04 	addi	r9,r2,-8
   23764:	2149c83a 	sub	r4,r4,r5
   23768:	b246983a 	sll	r3,r22,r9
   2376c:	e108d83a 	srl	r4,fp,r4
   23770:	e252983a 	sll	r9,fp,r9
   23774:	20ecb03a 	or	r22,r4,r3
   23778:	1491883a 	add	r8,r2,r18
   2377c:	4480fcc4 	addi	r18,r8,1011
   23780:	0007883a 	mov	r3,zero
   23784:	003fb306 	br	23654 <__divdf3+0xc0>
   23788:	8126b03a 	or	r19,r16,r4
   2378c:	2023883a 	mov	r17,r4
   23790:	98002726 	beq	r19,zero,23830 <__divdf3+0x29c>
   23794:	80017026 	beq	r16,zero,23d58 <__divdf3+0x7c4>
   23798:	8009883a 	mov	r4,r16
   2379c:	00252900 	call	25290 <__clzsi2>
   237a0:	113ffd44 	addi	r4,r2,-11
   237a4:	00c00744 	movi	r3,29
   237a8:	14fffe04 	addi	r19,r2,-8
   237ac:	1907c83a 	sub	r3,r3,r4
   237b0:	84ca983a 	sll	r5,r16,r19
   237b4:	88c6d83a 	srl	r3,r17,r3
   237b8:	8ce8983a 	sll	r20,r17,r19
   237bc:	1966b03a 	or	r19,r3,r5
   237c0:	023f0344 	movi	r8,-1011
   237c4:	40a5c83a 	sub	r18,r8,r2
   237c8:	0021883a 	mov	r16,zero
   237cc:	0023883a 	mov	r17,zero
   237d0:	003f8f06 	br	23610 <__divdf3+0x7c>
   237d4:	8126b03a 	or	r19,r16,r4
   237d8:	9800101e 	bne	r19,zero,2381c <__divdf3+0x288>
   237dc:	0029883a 	mov	r20,zero
   237e0:	04000204 	movi	r16,8
   237e4:	0481ffc4 	movi	r18,2047
   237e8:	04400084 	movi	r17,2
   237ec:	003f8806 	br	23610 <__divdf3+0x7c>
   237f0:	b712b03a 	or	r9,r22,fp
   237f4:	94be0044 	addi	r18,r18,-2047
   237f8:	4800041e 	bne	r9,zero,2380c <__divdf3+0x278>
   237fc:	84000094 	ori	r16,r16,2
   23800:	002d883a 	mov	r22,zero
   23804:	00c00084 	movi	r3,2
   23808:	003f9206 	br	23654 <__divdf3+0xc0>
   2380c:	840000d4 	ori	r16,r16,3
   23810:	e013883a 	mov	r9,fp
   23814:	00c000c4 	movi	r3,3
   23818:	003f8e06 	br	23654 <__divdf3+0xc0>
   2381c:	8027883a 	mov	r19,r16
   23820:	0481ffc4 	movi	r18,2047
   23824:	04000304 	movi	r16,12
   23828:	044000c4 	movi	r17,3
   2382c:	003f7806 	br	23610 <__divdf3+0x7c>
   23830:	0029883a 	mov	r20,zero
   23834:	04000104 	movi	r16,4
   23838:	0025883a 	mov	r18,zero
   2383c:	04400044 	movi	r17,1
   23840:	003f7306 	br	23610 <__divdf3+0x7c>
   23844:	84000054 	ori	r16,r16,1
   23848:	002d883a 	mov	r22,zero
   2384c:	00c00044 	movi	r3,1
   23850:	003f8006 	br	23654 <__divdf3+0xc0>
   23854:	9440ffc4 	addi	r17,r18,1023
   23858:	0441050e 	bge	zero,r17,23c70 <__divdf3+0x6dc>
   2385c:	a08001cc 	andi	r2,r20,7
   23860:	10016c1e 	bne	r2,zero,23e14 <__divdf3+0x880>
   23864:	a008d0fa 	srli	r4,r20,3
   23868:	9880402c 	andhi	r2,r19,256
   2386c:	10000426 	beq	r2,zero,23880 <__divdf3+0x2ec>
   23870:	00bfc034 	movhi	r2,65280
   23874:	10bfffc4 	addi	r2,r2,-1
   23878:	98a6703a 	and	r19,r19,r2
   2387c:	94410004 	addi	r17,r18,1024
   23880:	8881ffc8 	cmpgei	r2,r17,2047
   23884:	103fa61e 	bne	r2,zero,23720 <__divdf3+0x18c>
   23888:	9828977a 	slli	r20,r19,29
   2388c:	980a927a 	slli	r5,r19,9
   23890:	88c1ffcc 	andi	r3,r17,2047
   23894:	a128b03a 	or	r20,r20,r4
   23898:	280ad33a 	srli	r5,r5,12
   2389c:	003f8f06 	br	236dc <__divdf3+0x148>
   238a0:	01400434 	movhi	r5,16
   238a4:	000f883a 	mov	r7,zero
   238a8:	297fffc4 	addi	r5,r5,-1
   238ac:	053fffc4 	movi	r20,-1
   238b0:	00c1ffc4 	movi	r3,2047
   238b4:	003f8906 	br	236dc <__divdf3+0x148>
   238b8:	9880022c 	andhi	r2,r19,8
   238bc:	10000926 	beq	r2,zero,238e4 <__divdf3+0x350>
   238c0:	b080022c 	andhi	r2,r22,8
   238c4:	1000071e 	bne	r2,zero,238e4 <__divdf3+0x350>
   238c8:	00800434 	movhi	r2,16
   238cc:	b1400234 	orhi	r5,r22,8
   238d0:	10bfffc4 	addi	r2,r2,-1
   238d4:	288a703a 	and	r5,r5,r2
   238d8:	a80f883a 	mov	r7,r21
   238dc:	4829883a 	mov	r20,r9
   238e0:	003ff306 	br	238b0 <__divdf3+0x31c>
   238e4:	00800434 	movhi	r2,16
   238e8:	99400234 	orhi	r5,r19,8
   238ec:	10bfffc4 	addi	r2,r2,-1
   238f0:	288a703a 	and	r5,r5,r2
   238f4:	b80f883a 	mov	r7,r23
   238f8:	003fed06 	br	238b0 <__divdf3+0x31c>
   238fc:	b4c10536 	bltu	r22,r19,23d14 <__divdf3+0x780>
   23900:	b4c10326 	beq	r22,r19,23d10 <__divdf3+0x77c>
   23904:	94bfffc4 	addi	r18,r18,-1
   23908:	a039883a 	mov	fp,r20
   2390c:	9821883a 	mov	r16,r19
   23910:	0023883a 	mov	r17,zero
   23914:	b006923a 	slli	r3,r22,8
   23918:	482cd63a 	srli	r22,r9,24
   2391c:	8009883a 	mov	r4,r16
   23920:	182ed43a 	srli	r23,r3,16
   23924:	b0ecb03a 	or	r22,r22,r3
   23928:	d9c00015 	stw	r7,0(sp)
   2392c:	b80b883a 	mov	r5,r23
   23930:	482a923a 	slli	r21,r9,8
   23934:	b53fffcc 	andi	r20,r22,65535
   23938:	0022bbc0 	call	22bbc <__udivsi3>
   2393c:	100b883a 	mov	r5,r2
   23940:	a009883a 	mov	r4,r20
   23944:	1027883a 	mov	r19,r2
   23948:	0022c7c0 	call	22c7c <__mulsi3>
   2394c:	8009883a 	mov	r4,r16
   23950:	b80b883a 	mov	r5,r23
   23954:	1021883a 	mov	r16,r2
   23958:	0022c200 	call	22c20 <__umodsi3>
   2395c:	1004943a 	slli	r2,r2,16
   23960:	e008d43a 	srli	r4,fp,16
   23964:	d9c00017 	ldw	r7,0(sp)
   23968:	2088b03a 	or	r4,r4,r2
   2396c:	2400042e 	bgeu	r4,r16,23980 <__divdf3+0x3ec>
   23970:	2589883a 	add	r4,r4,r22
   23974:	98bfffc4 	addi	r2,r19,-1
   23978:	2581082e 	bgeu	r4,r22,23d9c <__divdf3+0x808>
   2397c:	1027883a 	mov	r19,r2
   23980:	2421c83a 	sub	r16,r4,r16
   23984:	b80b883a 	mov	r5,r23
   23988:	8009883a 	mov	r4,r16
   2398c:	d9c00215 	stw	r7,8(sp)
   23990:	0022bbc0 	call	22bbc <__udivsi3>
   23994:	100b883a 	mov	r5,r2
   23998:	a009883a 	mov	r4,r20
   2399c:	d8800115 	stw	r2,4(sp)
   239a0:	0022c7c0 	call	22c7c <__mulsi3>
   239a4:	b80b883a 	mov	r5,r23
   239a8:	8009883a 	mov	r4,r16
   239ac:	d8800015 	stw	r2,0(sp)
   239b0:	0022c200 	call	22c20 <__umodsi3>
   239b4:	100c943a 	slli	r6,r2,16
   239b8:	d8c00017 	ldw	r3,0(sp)
   239bc:	e73fffcc 	andi	fp,fp,65535
   239c0:	e18cb03a 	or	r6,fp,r6
   239c4:	da000117 	ldw	r8,4(sp)
   239c8:	d9c00217 	ldw	r7,8(sp)
   239cc:	30c0042e 	bgeu	r6,r3,239e0 <__divdf3+0x44c>
   239d0:	358d883a 	add	r6,r6,r22
   239d4:	40bfffc4 	addi	r2,r8,-1
   239d8:	3580ec2e 	bgeu	r6,r22,23d8c <__divdf3+0x7f8>
   239dc:	1011883a 	mov	r8,r2
   239e0:	9826943a 	slli	r19,r19,16
   239e4:	af3fffcc 	andi	fp,r21,65535
   239e8:	30c7c83a 	sub	r3,r6,r3
   239ec:	9a26b03a 	or	r19,r19,r8
   239f0:	9810d43a 	srli	r8,r19,16
   239f4:	9abfffcc 	andi	r10,r19,65535
   239f8:	5009883a 	mov	r4,r10
   239fc:	e00b883a 	mov	r5,fp
   23a00:	d9c00515 	stw	r7,20(sp)
   23a04:	d8c00315 	stw	r3,12(sp)
   23a08:	da800415 	stw	r10,16(sp)
   23a0c:	da000015 	stw	r8,0(sp)
   23a10:	0022c7c0 	call	22c7c <__mulsi3>
   23a14:	da000017 	ldw	r8,0(sp)
   23a18:	e00b883a 	mov	r5,fp
   23a1c:	d8800215 	stw	r2,8(sp)
   23a20:	4009883a 	mov	r4,r8
   23a24:	0022c7c0 	call	22c7c <__mulsi3>
   23a28:	da000017 	ldw	r8,0(sp)
   23a2c:	a820d43a 	srli	r16,r21,16
   23a30:	d8800115 	stw	r2,4(sp)
   23a34:	4009883a 	mov	r4,r8
   23a38:	800b883a 	mov	r5,r16
   23a3c:	0022c7c0 	call	22c7c <__mulsi3>
   23a40:	da800417 	ldw	r10,16(sp)
   23a44:	8009883a 	mov	r4,r16
   23a48:	d8800015 	stw	r2,0(sp)
   23a4c:	500b883a 	mov	r5,r10
   23a50:	0022c7c0 	call	22c7c <__mulsi3>
   23a54:	d9800217 	ldw	r6,8(sp)
   23a58:	da000117 	ldw	r8,4(sp)
   23a5c:	da400017 	ldw	r9,0(sp)
   23a60:	3008d43a 	srli	r4,r6,16
   23a64:	1205883a 	add	r2,r2,r8
   23a68:	d8c00317 	ldw	r3,12(sp)
   23a6c:	2089883a 	add	r4,r4,r2
   23a70:	d9c00517 	ldw	r7,20(sp)
   23a74:	2200022e 	bgeu	r4,r8,23a80 <__divdf3+0x4ec>
   23a78:	00800074 	movhi	r2,1
   23a7c:	4893883a 	add	r9,r9,r2
   23a80:	200ad43a 	srli	r5,r4,16
   23a84:	2008943a 	slli	r4,r4,16
   23a88:	31bfffcc 	andi	r6,r6,65535
   23a8c:	2a4b883a 	add	r5,r5,r9
   23a90:	218d883a 	add	r6,r4,r6
   23a94:	19409436 	bltu	r3,r5,23ce8 <__divdf3+0x754>
   23a98:	19409226 	beq	r3,r5,23ce4 <__divdf3+0x750>
   23a9c:	898dc83a 	sub	r6,r17,r6
   23aa0:	89a3803a 	cmpltu	r17,r17,r6
   23aa4:	1947c83a 	sub	r3,r3,r5
   23aa8:	1c47c83a 	sub	r3,r3,r17
   23aac:	9440ffc4 	addi	r17,r18,1023
   23ab0:	b0c0d326 	beq	r22,r3,23e00 <__divdf3+0x86c>
   23ab4:	1809883a 	mov	r4,r3
   23ab8:	b80b883a 	mov	r5,r23
   23abc:	d9800315 	stw	r6,12(sp)
   23ac0:	d9c00215 	stw	r7,8(sp)
   23ac4:	d8c00015 	stw	r3,0(sp)
   23ac8:	0022bbc0 	call	22bbc <__udivsi3>
   23acc:	100b883a 	mov	r5,r2
   23ad0:	a009883a 	mov	r4,r20
   23ad4:	d8800115 	stw	r2,4(sp)
   23ad8:	0022c7c0 	call	22c7c <__mulsi3>
   23adc:	d8c00017 	ldw	r3,0(sp)
   23ae0:	b80b883a 	mov	r5,r23
   23ae4:	d8800015 	stw	r2,0(sp)
   23ae8:	1809883a 	mov	r4,r3
   23aec:	0022c200 	call	22c20 <__umodsi3>
   23af0:	d9800317 	ldw	r6,12(sp)
   23af4:	1006943a 	slli	r3,r2,16
   23af8:	da400017 	ldw	r9,0(sp)
   23afc:	3008d43a 	srli	r4,r6,16
   23b00:	da000117 	ldw	r8,4(sp)
   23b04:	d9c00217 	ldw	r7,8(sp)
   23b08:	20c6b03a 	or	r3,r4,r3
   23b0c:	1a40062e 	bgeu	r3,r9,23b28 <__divdf3+0x594>
   23b10:	1d87883a 	add	r3,r3,r22
   23b14:	40bfffc4 	addi	r2,r8,-1
   23b18:	1d80c836 	bltu	r3,r22,23e3c <__divdf3+0x8a8>
   23b1c:	1a40c72e 	bgeu	r3,r9,23e3c <__divdf3+0x8a8>
   23b20:	423fff84 	addi	r8,r8,-2
   23b24:	1d87883a 	add	r3,r3,r22
   23b28:	1a47c83a 	sub	r3,r3,r9
   23b2c:	1809883a 	mov	r4,r3
   23b30:	b80b883a 	mov	r5,r23
   23b34:	d9800415 	stw	r6,16(sp)
   23b38:	d9c00315 	stw	r7,12(sp)
   23b3c:	da000215 	stw	r8,8(sp)
   23b40:	d8c00115 	stw	r3,4(sp)
   23b44:	0022bbc0 	call	22bbc <__udivsi3>
   23b48:	100b883a 	mov	r5,r2
   23b4c:	a009883a 	mov	r4,r20
   23b50:	d8800015 	stw	r2,0(sp)
   23b54:	0022c7c0 	call	22c7c <__mulsi3>
   23b58:	d8c00117 	ldw	r3,4(sp)
   23b5c:	b80b883a 	mov	r5,r23
   23b60:	102f883a 	mov	r23,r2
   23b64:	1809883a 	mov	r4,r3
   23b68:	0022c200 	call	22c20 <__umodsi3>
   23b6c:	d9800417 	ldw	r6,16(sp)
   23b70:	1004943a 	slli	r2,r2,16
   23b74:	da400017 	ldw	r9,0(sp)
   23b78:	31bfffcc 	andi	r6,r6,65535
   23b7c:	308cb03a 	or	r6,r6,r2
   23b80:	da000217 	ldw	r8,8(sp)
   23b84:	d9c00317 	ldw	r7,12(sp)
   23b88:	35c0062e 	bgeu	r6,r23,23ba4 <__divdf3+0x610>
   23b8c:	358d883a 	add	r6,r6,r22
   23b90:	48bfffc4 	addi	r2,r9,-1
   23b94:	3580a736 	bltu	r6,r22,23e34 <__divdf3+0x8a0>
   23b98:	35c0a62e 	bgeu	r6,r23,23e34 <__divdf3+0x8a0>
   23b9c:	4a7fff84 	addi	r9,r9,-2
   23ba0:	358d883a 	add	r6,r6,r22
   23ba4:	4028943a 	slli	r20,r8,16
   23ba8:	35d5c83a 	sub	r10,r6,r23
   23bac:	e009883a 	mov	r4,fp
   23bb0:	a268b03a 	or	r20,r20,r9
   23bb4:	a23fffcc 	andi	r8,r20,65535
   23bb8:	a02ed43a 	srli	r23,r20,16
   23bbc:	400b883a 	mov	r5,r8
   23bc0:	d9c00315 	stw	r7,12(sp)
   23bc4:	da800215 	stw	r10,8(sp)
   23bc8:	da000115 	stw	r8,4(sp)
   23bcc:	0022c7c0 	call	22c7c <__mulsi3>
   23bd0:	e00b883a 	mov	r5,fp
   23bd4:	b809883a 	mov	r4,r23
   23bd8:	1039883a 	mov	fp,r2
   23bdc:	0022c7c0 	call	22c7c <__mulsi3>
   23be0:	8009883a 	mov	r4,r16
   23be4:	b80b883a 	mov	r5,r23
   23be8:	d8800015 	stw	r2,0(sp)
   23bec:	0022c7c0 	call	22c7c <__mulsi3>
   23bf0:	da000117 	ldw	r8,4(sp)
   23bf4:	8009883a 	mov	r4,r16
   23bf8:	1021883a 	mov	r16,r2
   23bfc:	400b883a 	mov	r5,r8
   23c00:	0022c7c0 	call	22c7c <__mulsi3>
   23c04:	d9800017 	ldw	r6,0(sp)
   23c08:	e006d43a 	srli	r3,fp,16
   23c0c:	da800217 	ldw	r10,8(sp)
   23c10:	1185883a 	add	r2,r2,r6
   23c14:	1887883a 	add	r3,r3,r2
   23c18:	d9c00317 	ldw	r7,12(sp)
   23c1c:	1980022e 	bgeu	r3,r6,23c28 <__divdf3+0x694>
   23c20:	00800074 	movhi	r2,1
   23c24:	80a1883a 	add	r16,r16,r2
   23c28:	1808d43a 	srli	r4,r3,16
   23c2c:	1806943a 	slli	r3,r3,16
   23c30:	e73fffcc 	andi	fp,fp,65535
   23c34:	2409883a 	add	r4,r4,r16
   23c38:	1f07883a 	add	r3,r3,fp
   23c3c:	51000436 	bltu	r10,r4,23c50 <__divdf3+0x6bc>
   23c40:	51000226 	beq	r10,r4,23c4c <__divdf3+0x6b8>
   23c44:	a5000054 	ori	r20,r20,1
   23c48:	003f0306 	br	23858 <__divdf3+0x2c4>
   23c4c:	183f0226 	beq	r3,zero,23858 <__divdf3+0x2c4>
   23c50:	b28d883a 	add	r6,r22,r10
   23c54:	a0bfffc4 	addi	r2,r20,-1
   23c58:	35806536 	bltu	r6,r22,23df0 <__divdf3+0x85c>
   23c5c:	31008036 	bltu	r6,r4,23e60 <__divdf3+0x8cc>
   23c60:	31009426 	beq	r6,r4,23eb4 <__divdf3+0x920>
   23c64:	1029883a 	mov	r20,r2
   23c68:	003ff606 	br	23c44 <__divdf3+0x6b0>
   23c6c:	053fffc4 	movi	r20,-1
   23c70:	01400044 	movi	r5,1
   23c74:	2c4bc83a 	sub	r5,r5,r17
   23c78:	28800e48 	cmpgei	r2,r5,57
   23c7c:	103e941e 	bne	r2,zero,236d0 <__divdf3+0x13c>
   23c80:	28800808 	cmpgei	r2,r5,32
   23c84:	1000491e 	bne	r2,zero,23dac <__divdf3+0x818>
   23c88:	92010784 	addi	r8,r18,1054
   23c8c:	9a04983a 	sll	r2,r19,r8
   23c90:	a146d83a 	srl	r3,r20,r5
   23c94:	a210983a 	sll	r8,r20,r8
   23c98:	994ad83a 	srl	r5,r19,r5
   23c9c:	10e8b03a 	or	r20,r2,r3
   23ca0:	4010c03a 	cmpne	r8,r8,zero
   23ca4:	a228b03a 	or	r20,r20,r8
   23ca8:	a08001cc 	andi	r2,r20,7
   23cac:	10000726 	beq	r2,zero,23ccc <__divdf3+0x738>
   23cb0:	a08003cc 	andi	r2,r20,15
   23cb4:	10800120 	cmpeqi	r2,r2,4
   23cb8:	1000041e 	bne	r2,zero,23ccc <__divdf3+0x738>
   23cbc:	a0800104 	addi	r2,r20,4
   23cc0:	1529803a 	cmpltu	r20,r2,r20
   23cc4:	2d0b883a 	add	r5,r5,r20
   23cc8:	1029883a 	mov	r20,r2
   23ccc:	2880202c 	andhi	r2,r5,128
   23cd0:	10006f26 	beq	r2,zero,23e90 <__divdf3+0x8fc>
   23cd4:	00c00044 	movi	r3,1
   23cd8:	000b883a 	mov	r5,zero
   23cdc:	0029883a 	mov	r20,zero
   23ce0:	003e7e06 	br	236dc <__divdf3+0x148>
   23ce4:	89bf6d2e 	bgeu	r17,r6,23a9c <__divdf3+0x508>
   23ce8:	8d63883a 	add	r17,r17,r21
   23cec:	8d45803a 	cmpltu	r2,r17,r21
   23cf0:	1585883a 	add	r2,r2,r22
   23cf4:	1887883a 	add	r3,r3,r2
   23cf8:	98bfffc4 	addi	r2,r19,-1
   23cfc:	b0c0202e 	bgeu	r22,r3,23d80 <__divdf3+0x7ec>
   23d00:	19405136 	bltu	r3,r5,23e48 <__divdf3+0x8b4>
   23d04:	28c04f26 	beq	r5,r3,23e44 <__divdf3+0x8b0>
   23d08:	1027883a 	mov	r19,r2
   23d0c:	003f6306 	br	23a9c <__divdf3+0x508>
   23d10:	a27efc36 	bltu	r20,r9,23904 <__divdf3+0x370>
   23d14:	983897fa 	slli	fp,r19,31
   23d18:	a004d07a 	srli	r2,r20,1
   23d1c:	9820d07a 	srli	r16,r19,1
   23d20:	a02297fa 	slli	r17,r20,31
   23d24:	e0b8b03a 	or	fp,fp,r2
   23d28:	003efa06 	br	23914 <__divdf3+0x380>
   23d2c:	e009883a 	mov	r4,fp
   23d30:	00252900 	call	25290 <__clzsi2>
   23d34:	11400544 	addi	r5,r2,21
   23d38:	29000748 	cmpgei	r4,r5,29
   23d3c:	1007883a 	mov	r3,r2
   23d40:	10800804 	addi	r2,r2,32
   23d44:	203e8526 	beq	r4,zero,2375c <__divdf3+0x1c8>
   23d48:	18fffe04 	addi	r3,r3,-8
   23d4c:	e0ec983a 	sll	r22,fp,r3
   23d50:	0013883a 	mov	r9,zero
   23d54:	003e8806 	br	23778 <__divdf3+0x1e4>
   23d58:	00252900 	call	25290 <__clzsi2>
   23d5c:	11000544 	addi	r4,r2,21
   23d60:	20c00748 	cmpgei	r3,r4,29
   23d64:	100b883a 	mov	r5,r2
   23d68:	10800804 	addi	r2,r2,32
   23d6c:	183e8d26 	beq	r3,zero,237a4 <__divdf3+0x210>
   23d70:	297ffe04 	addi	r5,r5,-8
   23d74:	a166983a 	sll	r19,r20,r5
   23d78:	0029883a 	mov	r20,zero
   23d7c:	003e9006 	br	237c0 <__divdf3+0x22c>
   23d80:	b0ffe11e 	bne	r22,r3,23d08 <__divdf3+0x774>
   23d84:	8d7fe036 	bltu	r17,r21,23d08 <__divdf3+0x774>
   23d88:	003fdd06 	br	23d00 <__divdf3+0x76c>
   23d8c:	30ff132e 	bgeu	r6,r3,239dc <__divdf3+0x448>
   23d90:	423fff84 	addi	r8,r8,-2
   23d94:	358d883a 	add	r6,r6,r22
   23d98:	003f1106 	br	239e0 <__divdf3+0x44c>
   23d9c:	243ef72e 	bgeu	r4,r16,2397c <__divdf3+0x3e8>
   23da0:	9cffff84 	addi	r19,r19,-2
   23da4:	2589883a 	add	r4,r4,r22
   23da8:	003ef506 	br	23980 <__divdf3+0x3ec>
   23dac:	00fff844 	movi	r3,-31
   23db0:	1c47c83a 	sub	r3,r3,r17
   23db4:	29400820 	cmpeqi	r5,r5,32
   23db8:	98c6d83a 	srl	r3,r19,r3
   23dbc:	2800031e 	bne	r5,zero,23dcc <__divdf3+0x838>
   23dc0:	91410f84 	addi	r5,r18,1086
   23dc4:	994a983a 	sll	r5,r19,r5
   23dc8:	a168b03a 	or	r20,r20,r5
   23dcc:	a028c03a 	cmpne	r20,r20,zero
   23dd0:	a0e8b03a 	or	r20,r20,r3
   23dd4:	a4c001cc 	andi	r19,r20,7
   23dd8:	9800291e 	bne	r19,zero,23e80 <__divdf3+0x8ec>
   23ddc:	000b883a 	mov	r5,zero
   23de0:	a028d0fa 	srli	r20,r20,3
   23de4:	0007883a 	mov	r3,zero
   23de8:	a4e8b03a 	or	r20,r20,r19
   23dec:	003e3b06 	br	236dc <__divdf3+0x148>
   23df0:	1029883a 	mov	r20,r2
   23df4:	313f931e 	bne	r6,r4,23c44 <__divdf3+0x6b0>
   23df8:	1d7f921e 	bne	r3,r21,23c44 <__divdf3+0x6b0>
   23dfc:	003e9606 	br	23858 <__divdf3+0x2c4>
   23e00:	047f9a0e 	bge	zero,r17,23c6c <__divdf3+0x6d8>
   23e04:	0009883a 	mov	r4,zero
   23e08:	05000044 	movi	r20,1
   23e0c:	9d27883a 	add	r19,r19,r20
   23e10:	003e9506 	br	23868 <__divdf3+0x2d4>
   23e14:	a08003cc 	andi	r2,r20,15
   23e18:	10800118 	cmpnei	r2,r2,4
   23e1c:	103e9126 	beq	r2,zero,23864 <__divdf3+0x2d0>
   23e20:	a1000104 	addi	r4,r20,4
   23e24:	00bffec4 	movi	r2,-5
   23e28:	2008d0fa 	srli	r4,r4,3
   23e2c:	1529803a 	cmpltu	r20,r2,r20
   23e30:	003ff606 	br	23e0c <__divdf3+0x878>
   23e34:	1013883a 	mov	r9,r2
   23e38:	003f5a06 	br	23ba4 <__divdf3+0x610>
   23e3c:	1011883a 	mov	r8,r2
   23e40:	003f3906 	br	23b28 <__divdf3+0x594>
   23e44:	89bfb02e 	bgeu	r17,r6,23d08 <__divdf3+0x774>
   23e48:	8d63883a 	add	r17,r17,r21
   23e4c:	8d45803a 	cmpltu	r2,r17,r21
   23e50:	1585883a 	add	r2,r2,r22
   23e54:	9cffff84 	addi	r19,r19,-2
   23e58:	1887883a 	add	r3,r3,r2
   23e5c:	003f0f06 	br	23a9c <__divdf3+0x508>
   23e60:	ad45883a 	add	r2,r21,r21
   23e64:	156b803a 	cmpltu	r21,r2,r21
   23e68:	adad883a 	add	r22,r21,r22
   23e6c:	358d883a 	add	r6,r6,r22
   23e70:	a53fff84 	addi	r20,r20,-2
   23e74:	102b883a 	mov	r21,r2
   23e78:	313fdf26 	beq	r6,r4,23df8 <__divdf3+0x864>
   23e7c:	003f7106 	br	23c44 <__divdf3+0x6b0>
   23e80:	a08003cc 	andi	r2,r20,15
   23e84:	10800118 	cmpnei	r2,r2,4
   23e88:	000b883a 	mov	r5,zero
   23e8c:	103f8b1e 	bne	r2,zero,23cbc <__divdf3+0x728>
   23e90:	2804927a 	slli	r2,r5,9
   23e94:	2826977a 	slli	r19,r5,29
   23e98:	100ad33a 	srli	r5,r2,12
   23e9c:	003fd006 	br	23de0 <__divdf3+0x84c>
   23ea0:	00800434 	movhi	r2,16
   23ea4:	99400234 	orhi	r5,r19,8
   23ea8:	10bfffc4 	addi	r2,r2,-1
   23eac:	288a703a 	and	r5,r5,r2
   23eb0:	003e7f06 	br	238b0 <__divdf3+0x31c>
   23eb4:	a8ffea36 	bltu	r21,r3,23e60 <__divdf3+0x8cc>
   23eb8:	1029883a 	mov	r20,r2
   23ebc:	1d7f611e 	bne	r3,r21,23c44 <__divdf3+0x6b0>
   23ec0:	003e6506 	br	23858 <__divdf3+0x2c4>

00023ec4 <__gedf2>:
   23ec4:	2810d53a 	srli	r8,r5,20
   23ec8:	3812d53a 	srli	r9,r7,20
   23ecc:	00c00434 	movhi	r3,16
   23ed0:	4201ffcc 	andi	r8,r8,2047
   23ed4:	18ffffc4 	addi	r3,r3,-1
   23ed8:	4281ffd8 	cmpnei	r10,r8,2047
   23edc:	2816d7fa 	srli	r11,r5,31
   23ee0:	3804d7fa 	srli	r2,r7,31
   23ee4:	28ca703a 	and	r5,r5,r3
   23ee8:	38ce703a 	and	r7,r7,r3
   23eec:	48c1ffcc 	andi	r3,r9,2047
   23ef0:	50000a26 	beq	r10,zero,23f1c <__gedf2+0x58>
   23ef4:	1a41ffd8 	cmpnei	r9,r3,2047
   23ef8:	48000c26 	beq	r9,zero,23f2c <__gedf2+0x68>
   23efc:	4000171e 	bne	r8,zero,23f5c <__gedf2+0x98>
   23f00:	2912b03a 	or	r9,r5,r4
   23f04:	1800121e 	bne	r3,zero,23f50 <__gedf2+0x8c>
   23f08:	3994b03a 	or	r10,r7,r6
   23f0c:	5000101e 	bne	r10,zero,23f50 <__gedf2+0x8c>
   23f10:	48000a1e 	bne	r9,zero,23f3c <__gedf2+0x78>
   23f14:	0005883a 	mov	r2,zero
   23f18:	f800283a 	ret
   23f1c:	2912b03a 	or	r9,r5,r4
   23f20:	48001d1e 	bne	r9,zero,23f98 <__gedf2+0xd4>
   23f24:	1a41ffe0 	cmpeqi	r9,r3,2047
   23f28:	48000c26 	beq	r9,zero,23f5c <__gedf2+0x98>
   23f2c:	3992b03a 	or	r9,r7,r6
   23f30:	4800191e 	bne	r9,zero,23f98 <__gedf2+0xd4>
   23f34:	40000526 	beq	r8,zero,23f4c <__gedf2+0x88>
   23f38:	58800c26 	beq	r11,r2,23f6c <__gedf2+0xa8>
   23f3c:	00800044 	movi	r2,1
   23f40:	58000526 	beq	r11,zero,23f58 <__gedf2+0x94>
   23f44:	00bfffc4 	movi	r2,-1
   23f48:	f800283a 	ret
   23f4c:	2912b03a 	or	r9,r5,r4
   23f50:	483ff91e 	bne	r9,zero,23f38 <__gedf2+0x74>
   23f54:	103ffb26 	beq	r2,zero,23f44 <__gedf2+0x80>
   23f58:	f800283a 	ret
   23f5c:	183ff61e 	bne	r3,zero,23f38 <__gedf2+0x74>
   23f60:	3992b03a 	or	r9,r7,r6
   23f64:	483ff41e 	bne	r9,zero,23f38 <__gedf2+0x74>
   23f68:	003ff406 	br	23f3c <__gedf2+0x78>
   23f6c:	1a000716 	blt	r3,r8,23f8c <__gedf2+0xc8>
   23f70:	40fff816 	blt	r8,r3,23f54 <__gedf2+0x90>
   23f74:	397ff136 	bltu	r7,r5,23f3c <__gedf2+0x78>
   23f78:	29c00926 	beq	r5,r7,23fa0 <__gedf2+0xdc>
   23f7c:	29ffe52e 	bgeu	r5,r7,23f14 <__gedf2+0x50>
   23f80:	583ff026 	beq	r11,zero,23f44 <__gedf2+0x80>
   23f84:	5805883a 	mov	r2,r11
   23f88:	f800283a 	ret
   23f8c:	103fed1e 	bne	r2,zero,23f44 <__gedf2+0x80>
   23f90:	00800044 	movi	r2,1
   23f94:	f800283a 	ret
   23f98:	00bfff84 	movi	r2,-2
   23f9c:	f800283a 	ret
   23fa0:	313fe636 	bltu	r6,r4,23f3c <__gedf2+0x78>
   23fa4:	21bfdb2e 	bgeu	r4,r6,23f14 <__gedf2+0x50>
   23fa8:	003ff506 	br	23f80 <__gedf2+0xbc>

00023fac <__ledf2>:
   23fac:	2810d53a 	srli	r8,r5,20
   23fb0:	3812d53a 	srli	r9,r7,20
   23fb4:	00c00434 	movhi	r3,16
   23fb8:	4201ffcc 	andi	r8,r8,2047
   23fbc:	18ffffc4 	addi	r3,r3,-1
   23fc0:	4281ffd8 	cmpnei	r10,r8,2047
   23fc4:	2816d7fa 	srli	r11,r5,31
   23fc8:	3804d7fa 	srli	r2,r7,31
   23fcc:	28ca703a 	and	r5,r5,r3
   23fd0:	38ce703a 	and	r7,r7,r3
   23fd4:	48c1ffcc 	andi	r3,r9,2047
   23fd8:	50000a26 	beq	r10,zero,24004 <__ledf2+0x58>
   23fdc:	1a41ffd8 	cmpnei	r9,r3,2047
   23fe0:	48000c26 	beq	r9,zero,24014 <__ledf2+0x68>
   23fe4:	4000191e 	bne	r8,zero,2404c <__ledf2+0xa0>
   23fe8:	2912b03a 	or	r9,r5,r4
   23fec:	18000d1e 	bne	r3,zero,24024 <__ledf2+0x78>
   23ff0:	3994b03a 	or	r10,r7,r6
   23ff4:	50000b1e 	bne	r10,zero,24024 <__ledf2+0x78>
   23ff8:	48000c1e 	bne	r9,zero,2402c <__ledf2+0x80>
   23ffc:	0005883a 	mov	r2,zero
   24000:	f800283a 	ret
   24004:	2912b03a 	or	r9,r5,r4
   24008:	48000c1e 	bne	r9,zero,2403c <__ledf2+0x90>
   2400c:	1a41ffe0 	cmpeqi	r9,r3,2047
   24010:	48000e26 	beq	r9,zero,2404c <__ledf2+0xa0>
   24014:	3992b03a 	or	r9,r7,r6
   24018:	4800081e 	bne	r9,zero,2403c <__ledf2+0x90>
   2401c:	4000021e 	bne	r8,zero,24028 <__ledf2+0x7c>
   24020:	2912b03a 	or	r9,r5,r4
   24024:	48000726 	beq	r9,zero,24044 <__ledf2+0x98>
   24028:	58800c26 	beq	r11,r2,2405c <__ledf2+0xb0>
   2402c:	00800044 	movi	r2,1
   24030:	58000526 	beq	r11,zero,24048 <__ledf2+0x9c>
   24034:	00bfffc4 	movi	r2,-1
   24038:	f800283a 	ret
   2403c:	00800084 	movi	r2,2
   24040:	f800283a 	ret
   24044:	103ffb26 	beq	r2,zero,24034 <__ledf2+0x88>
   24048:	f800283a 	ret
   2404c:	183ff61e 	bne	r3,zero,24028 <__ledf2+0x7c>
   24050:	3992b03a 	or	r9,r7,r6
   24054:	483ff41e 	bne	r9,zero,24028 <__ledf2+0x7c>
   24058:	003ff406 	br	2402c <__ledf2+0x80>
   2405c:	1a00030e 	bge	r3,r8,2406c <__ledf2+0xc0>
   24060:	103ff41e 	bne	r2,zero,24034 <__ledf2+0x88>
   24064:	00800044 	movi	r2,1
   24068:	f800283a 	ret
   2406c:	40fff516 	blt	r8,r3,24044 <__ledf2+0x98>
   24070:	397fee36 	bltu	r7,r5,2402c <__ledf2+0x80>
   24074:	29c00426 	beq	r5,r7,24088 <__ledf2+0xdc>
   24078:	29ffe02e 	bgeu	r5,r7,23ffc <__ledf2+0x50>
   2407c:	583fed26 	beq	r11,zero,24034 <__ledf2+0x88>
   24080:	5805883a 	mov	r2,r11
   24084:	f800283a 	ret
   24088:	313fe836 	bltu	r6,r4,2402c <__ledf2+0x80>
   2408c:	21bfdb2e 	bgeu	r4,r6,23ffc <__ledf2+0x50>
   24090:	003ffa06 	br	2407c <__ledf2+0xd0>

00024094 <__muldf3>:
   24094:	2810d53a 	srli	r8,r5,20
   24098:	defff004 	addi	sp,sp,-64
   2409c:	00800434 	movhi	r2,16
   240a0:	df000e15 	stw	fp,56(sp)
   240a4:	dd000a15 	stw	r20,40(sp)
   240a8:	dcc00915 	stw	r19,36(sp)
   240ac:	dc400715 	stw	r17,28(sp)
   240b0:	10bfffc4 	addi	r2,r2,-1
   240b4:	dfc00f15 	stw	ra,60(sp)
   240b8:	ddc00d15 	stw	r23,52(sp)
   240bc:	dd800c15 	stw	r22,48(sp)
   240c0:	dd400b15 	stw	r21,44(sp)
   240c4:	dc800815 	stw	r18,32(sp)
   240c8:	dc000615 	stw	r16,24(sp)
   240cc:	4201ffcc 	andi	r8,r8,2047
   240d0:	2828d7fa 	srli	r20,r5,31
   240d4:	2023883a 	mov	r17,r4
   240d8:	3039883a 	mov	fp,r6
   240dc:	28a6703a 	and	r19,r5,r2
   240e0:	40013426 	beq	r8,zero,245b4 <__muldf3+0x520>
   240e4:	4081ffe0 	cmpeqi	r2,r8,2047
   240e8:	1001461e 	bne	r2,zero,24604 <__muldf3+0x570>
   240ec:	980a90fa 	slli	r5,r19,3
   240f0:	2026d77a 	srli	r19,r4,29
   240f4:	202490fa 	slli	r18,r4,3
   240f8:	423f0044 	addi	r8,r8,-1023
   240fc:	9966b03a 	or	r19,r19,r5
   24100:	9cc02034 	orhi	r19,r19,128
   24104:	002b883a 	mov	r21,zero
   24108:	002d883a 	mov	r22,zero
   2410c:	3804d53a 	srli	r2,r7,20
   24110:	00c00434 	movhi	r3,16
   24114:	18ffffc4 	addi	r3,r3,-1
   24118:	1081ffcc 	andi	r2,r2,2047
   2411c:	382ed7fa 	srli	r23,r7,31
   24120:	38e0703a 	and	r16,r7,r3
   24124:	10011026 	beq	r2,zero,24568 <__muldf3+0x4d4>
   24128:	10c1ffe0 	cmpeqi	r3,r2,2047
   2412c:	18013c1e 	bne	r3,zero,24620 <__muldf3+0x58c>
   24130:	e008d77a 	srli	r4,fp,29
   24134:	802090fa 	slli	r16,r16,3
   24138:	e02290fa 	slli	r17,fp,3
   2413c:	10bf0044 	addi	r2,r2,-1023
   24140:	2420b03a 	or	r16,r4,r16
   24144:	84002034 	orhi	r16,r16,128
   24148:	4091883a 	add	r8,r8,r2
   2414c:	0009883a 	mov	r4,zero
   24150:	a8800428 	cmpgeui	r2,r21,16
   24154:	a5ccf03a 	xor	r6,r20,r23
   24158:	41c00044 	addi	r7,r8,1
   2415c:	1000371e 	bne	r2,zero,2423c <__muldf3+0x1a8>
   24160:	a80490ba 	slli	r2,r21,2
   24164:	00c000b4 	movhi	r3,2
   24168:	10c7883a 	add	r3,r2,r3
   2416c:	18905d17 	ldw	r2,16756(r3)
   24170:	1000683a 	jmp	r2
   24174:	0002423c 	xorhi	zero,zero,2312
   24178:	000241b8 	rdprs	zero,zero,2310
   2417c:	000241b8 	rdprs	zero,zero,2310
   24180:	000241b4 	movhi	zero,2310
   24184:	000241c4 	movi	zero,2311
   24188:	000241c4 	movi	zero,2311
   2418c:	00024694 	movui	zero,2330
   24190:	000241b4 	movhi	zero,2310
   24194:	000241c4 	movi	zero,2311
   24198:	00024694 	movui	zero,2330
   2419c:	000241c4 	movi	zero,2311
   241a0:	000241b4 	movhi	zero,2310
   241a4:	0002463c 	xorhi	zero,zero,2328
   241a8:	0002463c 	xorhi	zero,zero,2328
   241ac:	0002463c 	xorhi	zero,zero,2328
   241b0:	00024720 	cmpeqi	zero,zero,2332
   241b4:	b80d883a 	mov	r6,r23
   241b8:	8027883a 	mov	r19,r16
   241bc:	8825883a 	mov	r18,r17
   241c0:	202d883a 	mov	r22,r4
   241c4:	b08000a0 	cmpeqi	r2,r22,2
   241c8:	1000181e 	bne	r2,zero,2422c <__muldf3+0x198>
   241cc:	b08000e0 	cmpeqi	r2,r22,3
   241d0:	1001961e 	bne	r2,zero,2482c <__muldf3+0x798>
   241d4:	b0800060 	cmpeqi	r2,r22,1
   241d8:	1000c926 	beq	r2,zero,24500 <__muldf3+0x46c>
   241dc:	0007883a 	mov	r3,zero
   241e0:	0027883a 	mov	r19,zero
   241e4:	0025883a 	mov	r18,zero
   241e8:	1806953a 	slli	r3,r3,20
   241ec:	300c97fa 	slli	r6,r6,31
   241f0:	9005883a 	mov	r2,r18
   241f4:	1cc6b03a 	or	r3,r3,r19
   241f8:	1986b03a 	or	r3,r3,r6
   241fc:	dfc00f17 	ldw	ra,60(sp)
   24200:	df000e17 	ldw	fp,56(sp)
   24204:	ddc00d17 	ldw	r23,52(sp)
   24208:	dd800c17 	ldw	r22,48(sp)
   2420c:	dd400b17 	ldw	r21,44(sp)
   24210:	dd000a17 	ldw	r20,40(sp)
   24214:	dcc00917 	ldw	r19,36(sp)
   24218:	dc800817 	ldw	r18,32(sp)
   2421c:	dc400717 	ldw	r17,28(sp)
   24220:	dc000617 	ldw	r16,24(sp)
   24224:	dec01004 	addi	sp,sp,64
   24228:	f800283a 	ret
   2422c:	00c1ffc4 	movi	r3,2047
   24230:	0027883a 	mov	r19,zero
   24234:	0025883a 	mov	r18,zero
   24238:	003feb06 	br	241e8 <__muldf3+0x154>
   2423c:	9028d43a 	srli	r20,r18,16
   24240:	8f3fffcc 	andi	fp,r17,65535
   24244:	957fffcc 	andi	r21,r18,65535
   24248:	a80b883a 	mov	r5,r21
   2424c:	e009883a 	mov	r4,fp
   24250:	d9800315 	stw	r6,12(sp)
   24254:	da000215 	stw	r8,8(sp)
   24258:	d9c00115 	stw	r7,4(sp)
   2425c:	8822d43a 	srli	r17,r17,16
   24260:	0022c7c0 	call	22c7c <__mulsi3>
   24264:	e00b883a 	mov	r5,fp
   24268:	a009883a 	mov	r4,r20
   2426c:	102d883a 	mov	r22,r2
   24270:	0022c7c0 	call	22c7c <__mulsi3>
   24274:	880b883a 	mov	r5,r17
   24278:	a009883a 	mov	r4,r20
   2427c:	102f883a 	mov	r23,r2
   24280:	0022c7c0 	call	22c7c <__mulsi3>
   24284:	a80b883a 	mov	r5,r21
   24288:	8809883a 	mov	r4,r17
   2428c:	d8800015 	stw	r2,0(sp)
   24290:	0022c7c0 	call	22c7c <__mulsi3>
   24294:	b006d43a 	srli	r3,r22,16
   24298:	15e5883a 	add	r18,r2,r23
   2429c:	d9c00117 	ldw	r7,4(sp)
   242a0:	1c87883a 	add	r3,r3,r18
   242a4:	da000217 	ldw	r8,8(sp)
   242a8:	d9800317 	ldw	r6,12(sp)
   242ac:	1dc0042e 	bgeu	r3,r23,242c0 <__muldf3+0x22c>
   242b0:	d9000017 	ldw	r4,0(sp)
   242b4:	00800074 	movhi	r2,1
   242b8:	2085883a 	add	r2,r4,r2
   242bc:	d8800015 	stw	r2,0(sp)
   242c0:	1804943a 	slli	r2,r3,16
   242c4:	85ffffcc 	andi	r23,r16,65535
   242c8:	b5bfffcc 	andi	r22,r22,65535
   242cc:	1585883a 	add	r2,r2,r22
   242d0:	a80b883a 	mov	r5,r21
   242d4:	b809883a 	mov	r4,r23
   242d8:	1824d43a 	srli	r18,r3,16
   242dc:	d9800515 	stw	r6,20(sp)
   242e0:	da000415 	stw	r8,16(sp)
   242e4:	d9c00315 	stw	r7,12(sp)
   242e8:	8020d43a 	srli	r16,r16,16
   242ec:	d8800115 	stw	r2,4(sp)
   242f0:	0022c7c0 	call	22c7c <__mulsi3>
   242f4:	a009883a 	mov	r4,r20
   242f8:	b80b883a 	mov	r5,r23
   242fc:	d8800215 	stw	r2,8(sp)
   24300:	0022c7c0 	call	22c7c <__mulsi3>
   24304:	a009883a 	mov	r4,r20
   24308:	800b883a 	mov	r5,r16
   2430c:	102d883a 	mov	r22,r2
   24310:	0022c7c0 	call	22c7c <__mulsi3>
   24314:	a80b883a 	mov	r5,r21
   24318:	8009883a 	mov	r4,r16
   2431c:	1029883a 	mov	r20,r2
   24320:	0022c7c0 	call	22c7c <__mulsi3>
   24324:	da800217 	ldw	r10,8(sp)
   24328:	1585883a 	add	r2,r2,r22
   2432c:	d9c00317 	ldw	r7,12(sp)
   24330:	5006d43a 	srli	r3,r10,16
   24334:	da000417 	ldw	r8,16(sp)
   24338:	d9800517 	ldw	r6,20(sp)
   2433c:	1887883a 	add	r3,r3,r2
   24340:	1d80022e 	bgeu	r3,r22,2434c <__muldf3+0x2b8>
   24344:	00800074 	movhi	r2,1
   24348:	a0a9883a 	add	r20,r20,r2
   2434c:	1804d43a 	srli	r2,r3,16
   24350:	1806943a 	slli	r3,r3,16
   24354:	982cd43a 	srli	r22,r19,16
   24358:	9d7fffcc 	andi	r21,r19,65535
   2435c:	e009883a 	mov	r4,fp
   24360:	54ffffcc 	andi	r19,r10,65535
   24364:	a80b883a 	mov	r5,r21
   24368:	1ce7883a 	add	r19,r3,r19
   2436c:	d9800515 	stw	r6,20(sp)
   24370:	da000415 	stw	r8,16(sp)
   24374:	d9c00315 	stw	r7,12(sp)
   24378:	1529883a 	add	r20,r2,r20
   2437c:	0022c7c0 	call	22c7c <__mulsi3>
   24380:	e00b883a 	mov	r5,fp
   24384:	b009883a 	mov	r4,r22
   24388:	d8800215 	stw	r2,8(sp)
   2438c:	0022c7c0 	call	22c7c <__mulsi3>
   24390:	8809883a 	mov	r4,r17
   24394:	b00b883a 	mov	r5,r22
   24398:	1039883a 	mov	fp,r2
   2439c:	0022c7c0 	call	22c7c <__mulsi3>
   243a0:	8809883a 	mov	r4,r17
   243a4:	a80b883a 	mov	r5,r21
   243a8:	1023883a 	mov	r17,r2
   243ac:	0022c7c0 	call	22c7c <__mulsi3>
   243b0:	d8c00217 	ldw	r3,8(sp)
   243b4:	1705883a 	add	r2,r2,fp
   243b8:	d9c00317 	ldw	r7,12(sp)
   243bc:	1808d43a 	srli	r4,r3,16
   243c0:	da000417 	ldw	r8,16(sp)
   243c4:	d9800517 	ldw	r6,20(sp)
   243c8:	2089883a 	add	r4,r4,r2
   243cc:	94e5883a 	add	r18,r18,r19
   243d0:	2700022e 	bgeu	r4,fp,243dc <__muldf3+0x348>
   243d4:	00800074 	movhi	r2,1
   243d8:	88a3883a 	add	r17,r17,r2
   243dc:	2004d43a 	srli	r2,r4,16
   243e0:	2038943a 	slli	fp,r4,16
   243e4:	18ffffcc 	andi	r3,r3,65535
   243e8:	b809883a 	mov	r4,r23
   243ec:	a80b883a 	mov	r5,r21
   243f0:	d9800415 	stw	r6,16(sp)
   243f4:	da000315 	stw	r8,12(sp)
   243f8:	d9c00215 	stw	r7,8(sp)
   243fc:	e0f9883a 	add	fp,fp,r3
   24400:	1463883a 	add	r17,r2,r17
   24404:	0022c7c0 	call	22c7c <__mulsi3>
   24408:	b80b883a 	mov	r5,r23
   2440c:	b009883a 	mov	r4,r22
   24410:	102f883a 	mov	r23,r2
   24414:	0022c7c0 	call	22c7c <__mulsi3>
   24418:	b00b883a 	mov	r5,r22
   2441c:	8009883a 	mov	r4,r16
   24420:	102d883a 	mov	r22,r2
   24424:	0022c7c0 	call	22c7c <__mulsi3>
   24428:	a80b883a 	mov	r5,r21
   2442c:	8009883a 	mov	r4,r16
   24430:	1021883a 	mov	r16,r2
   24434:	0022c7c0 	call	22c7c <__mulsi3>
   24438:	b80ad43a 	srli	r5,r23,16
   2443c:	1585883a 	add	r2,r2,r22
   24440:	d9c00217 	ldw	r7,8(sp)
   24444:	288b883a 	add	r5,r5,r2
   24448:	da000317 	ldw	r8,12(sp)
   2444c:	d9800417 	ldw	r6,16(sp)
   24450:	2d80022e 	bgeu	r5,r22,2445c <__muldf3+0x3c8>
   24454:	00800074 	movhi	r2,1
   24458:	80a1883a 	add	r16,r16,r2
   2445c:	2806943a 	slli	r3,r5,16
   24460:	d8800017 	ldw	r2,0(sp)
   24464:	bdffffcc 	andi	r23,r23,65535
   24468:	1dc7883a 	add	r3,r3,r23
   2446c:	90ab883a 	add	r21,r18,r2
   24470:	acd5803a 	cmpltu	r10,r21,r19
   24474:	1d07883a 	add	r3,r3,r20
   24478:	af2b883a 	add	r21,r21,fp
   2447c:	1a97883a 	add	r11,r3,r10
   24480:	af09803a 	cmpltu	r4,r21,fp
   24484:	2826d43a 	srli	r19,r5,16
   24488:	5c53883a 	add	r9,r11,r17
   2448c:	4905883a 	add	r2,r9,r4
   24490:	1d07803a 	cmpltu	r3,r3,r20
   24494:	5a95803a 	cmpltu	r10,r11,r10
   24498:	1a86b03a 	or	r3,r3,r10
   2449c:	1109803a 	cmpltu	r4,r2,r4
   244a0:	4c53803a 	cmpltu	r9,r9,r17
   244a4:	1ce7883a 	add	r19,r3,r19
   244a8:	4908b03a 	or	r4,r9,r4
   244ac:	a824927a 	slli	r18,r21,9
   244b0:	d8c00117 	ldw	r3,4(sp)
   244b4:	9927883a 	add	r19,r19,r4
   244b8:	9c27883a 	add	r19,r19,r16
   244bc:	9826927a 	slli	r19,r19,9
   244c0:	a82ad5fa 	srli	r21,r21,23
   244c4:	100ad5fa 	srli	r5,r2,23
   244c8:	90e4b03a 	or	r18,r18,r3
   244cc:	1004927a 	slli	r2,r2,9
   244d0:	9024c03a 	cmpne	r18,r18,zero
   244d4:	9564b03a 	or	r18,r18,r21
   244d8:	98c0402c 	andhi	r3,r19,256
   244dc:	90a4b03a 	or	r18,r18,r2
   244e0:	9966b03a 	or	r19,r19,r5
   244e4:	1800b626 	beq	r3,zero,247c0 <__muldf3+0x72c>
   244e8:	9006d07a 	srli	r3,r18,1
   244ec:	980497fa 	slli	r2,r19,31
   244f0:	9480004c 	andi	r18,r18,1
   244f4:	9826d07a 	srli	r19,r19,1
   244f8:	1c86b03a 	or	r3,r3,r18
   244fc:	18a4b03a 	or	r18,r3,r2
   24500:	3900ffc4 	addi	r4,r7,1023
   24504:	0100690e 	bge	zero,r4,246ac <__muldf3+0x618>
   24508:	908001cc 	andi	r2,r18,7
   2450c:	10000726 	beq	r2,zero,2452c <__muldf3+0x498>
   24510:	908003cc 	andi	r2,r18,15
   24514:	10800120 	cmpeqi	r2,r2,4
   24518:	1000041e 	bne	r2,zero,2452c <__muldf3+0x498>
   2451c:	90800104 	addi	r2,r18,4
   24520:	14a5803a 	cmpltu	r18,r2,r18
   24524:	9ca7883a 	add	r19,r19,r18
   24528:	1025883a 	mov	r18,r2
   2452c:	9880402c 	andhi	r2,r19,256
   24530:	10000426 	beq	r2,zero,24544 <__muldf3+0x4b0>
   24534:	00bfc034 	movhi	r2,65280
   24538:	10bfffc4 	addi	r2,r2,-1
   2453c:	98a6703a 	and	r19,r19,r2
   24540:	39010004 	addi	r4,r7,1024
   24544:	2081ffc8 	cmpgei	r2,r4,2047
   24548:	103f381e 	bne	r2,zero,2422c <__muldf3+0x198>
   2454c:	9804977a 	slli	r2,r19,29
   24550:	9024d0fa 	srli	r18,r18,3
   24554:	9826927a 	slli	r19,r19,9
   24558:	20c1ffcc 	andi	r3,r4,2047
   2455c:	14a4b03a 	or	r18,r2,r18
   24560:	9826d33a 	srli	r19,r19,12
   24564:	003f2006 	br	241e8 <__muldf3+0x154>
   24568:	8722b03a 	or	r17,r16,fp
   2456c:	88004526 	beq	r17,zero,24684 <__muldf3+0x5f0>
   24570:	da000015 	stw	r8,0(sp)
   24574:	80008626 	beq	r16,zero,24790 <__muldf3+0x6fc>
   24578:	8009883a 	mov	r4,r16
   2457c:	00252900 	call	25290 <__clzsi2>
   24580:	da000017 	ldw	r8,0(sp)
   24584:	117ffd44 	addi	r5,r2,-11
   24588:	01000744 	movi	r4,29
   2458c:	147ffe04 	addi	r17,r2,-8
   24590:	2149c83a 	sub	r4,r4,r5
   24594:	8460983a 	sll	r16,r16,r17
   24598:	e108d83a 	srl	r4,fp,r4
   2459c:	e462983a 	sll	r17,fp,r17
   245a0:	2420b03a 	or	r16,r4,r16
   245a4:	4091c83a 	sub	r8,r8,r2
   245a8:	423f0344 	addi	r8,r8,-1011
   245ac:	0009883a 	mov	r4,zero
   245b0:	003ee706 	br	24150 <__muldf3+0xbc>
   245b4:	9924b03a 	or	r18,r19,r4
   245b8:	90002d26 	beq	r18,zero,24670 <__muldf3+0x5dc>
   245bc:	d9c00015 	stw	r7,0(sp)
   245c0:	98006826 	beq	r19,zero,24764 <__muldf3+0x6d0>
   245c4:	9809883a 	mov	r4,r19
   245c8:	00252900 	call	25290 <__clzsi2>
   245cc:	d9c00017 	ldw	r7,0(sp)
   245d0:	113ffd44 	addi	r4,r2,-11
   245d4:	00c00744 	movi	r3,29
   245d8:	14bffe04 	addi	r18,r2,-8
   245dc:	1907c83a 	sub	r3,r3,r4
   245e0:	9ca6983a 	sll	r19,r19,r18
   245e4:	88c6d83a 	srl	r3,r17,r3
   245e8:	8ca4983a 	sll	r18,r17,r18
   245ec:	1ce6b03a 	or	r19,r3,r19
   245f0:	023f0344 	movi	r8,-1011
   245f4:	4091c83a 	sub	r8,r8,r2
   245f8:	002b883a 	mov	r21,zero
   245fc:	002d883a 	mov	r22,zero
   24600:	003ec206 	br	2410c <__muldf3+0x78>
   24604:	9924b03a 	or	r18,r19,r4
   24608:	9000141e 	bne	r18,zero,2465c <__muldf3+0x5c8>
   2460c:	0027883a 	mov	r19,zero
   24610:	05400204 	movi	r21,8
   24614:	0201ffc4 	movi	r8,2047
   24618:	05800084 	movi	r22,2
   2461c:	003ebb06 	br	2410c <__muldf3+0x78>
   24620:	8722b03a 	or	r17,r16,fp
   24624:	4201ffc4 	addi	r8,r8,2047
   24628:	8800081e 	bne	r17,zero,2464c <__muldf3+0x5b8>
   2462c:	ad400094 	ori	r21,r21,2
   24630:	0021883a 	mov	r16,zero
   24634:	01000084 	movi	r4,2
   24638:	003ec506 	br	24150 <__muldf3+0xbc>
   2463c:	b08000a0 	cmpeqi	r2,r22,2
   24640:	a00d883a 	mov	r6,r20
   24644:	103ee126 	beq	r2,zero,241cc <__muldf3+0x138>
   24648:	003ef806 	br	2422c <__muldf3+0x198>
   2464c:	ad4000d4 	ori	r21,r21,3
   24650:	e023883a 	mov	r17,fp
   24654:	010000c4 	movi	r4,3
   24658:	003ebd06 	br	24150 <__muldf3+0xbc>
   2465c:	2025883a 	mov	r18,r4
   24660:	05400304 	movi	r21,12
   24664:	0201ffc4 	movi	r8,2047
   24668:	058000c4 	movi	r22,3
   2466c:	003ea706 	br	2410c <__muldf3+0x78>
   24670:	0027883a 	mov	r19,zero
   24674:	05400104 	movi	r21,4
   24678:	0011883a 	mov	r8,zero
   2467c:	05800044 	movi	r22,1
   24680:	003ea206 	br	2410c <__muldf3+0x78>
   24684:	ad400054 	ori	r21,r21,1
   24688:	0021883a 	mov	r16,zero
   2468c:	01000044 	movi	r4,1
   24690:	003eaf06 	br	24150 <__muldf3+0xbc>
   24694:	04c00434 	movhi	r19,16
   24698:	000d883a 	mov	r6,zero
   2469c:	9cffffc4 	addi	r19,r19,-1
   246a0:	04bfffc4 	movi	r18,-1
   246a4:	00c1ffc4 	movi	r3,2047
   246a8:	003ecf06 	br	241e8 <__muldf3+0x154>
   246ac:	00800044 	movi	r2,1
   246b0:	1105c83a 	sub	r2,r2,r4
   246b4:	10c00e48 	cmpgei	r3,r2,57
   246b8:	183ec81e 	bne	r3,zero,241dc <__muldf3+0x148>
   246bc:	10c00808 	cmpgei	r3,r2,32
   246c0:	1800411e 	bne	r3,zero,247c8 <__muldf3+0x734>
   246c4:	39c10784 	addi	r7,r7,1054
   246c8:	99c6983a 	sll	r3,r19,r7
   246cc:	9088d83a 	srl	r4,r18,r2
   246d0:	91ce983a 	sll	r7,r18,r7
   246d4:	98a6d83a 	srl	r19,r19,r2
   246d8:	1904b03a 	or	r2,r3,r4
   246dc:	3824c03a 	cmpne	r18,r7,zero
   246e0:	1484b03a 	or	r2,r2,r18
   246e4:	10c001cc 	andi	r3,r2,7
   246e8:	18000726 	beq	r3,zero,24708 <__muldf3+0x674>
   246ec:	10c003cc 	andi	r3,r2,15
   246f0:	18c00120 	cmpeqi	r3,r3,4
   246f4:	1800041e 	bne	r3,zero,24708 <__muldf3+0x674>
   246f8:	10c00104 	addi	r3,r2,4
   246fc:	1885803a 	cmpltu	r2,r3,r2
   24700:	98a7883a 	add	r19,r19,r2
   24704:	1805883a 	mov	r2,r3
   24708:	98c0202c 	andhi	r3,r19,128
   2470c:	18004326 	beq	r3,zero,2481c <__muldf3+0x788>
   24710:	00c00044 	movi	r3,1
   24714:	0027883a 	mov	r19,zero
   24718:	0025883a 	mov	r18,zero
   2471c:	003eb206 	br	241e8 <__muldf3+0x154>
   24720:	9880022c 	andhi	r2,r19,8
   24724:	10000926 	beq	r2,zero,2474c <__muldf3+0x6b8>
   24728:	8080022c 	andhi	r2,r16,8
   2472c:	1000071e 	bne	r2,zero,2474c <__muldf3+0x6b8>
   24730:	00800434 	movhi	r2,16
   24734:	84c00234 	orhi	r19,r16,8
   24738:	10bfffc4 	addi	r2,r2,-1
   2473c:	98a6703a 	and	r19,r19,r2
   24740:	b80d883a 	mov	r6,r23
   24744:	8825883a 	mov	r18,r17
   24748:	003fd606 	br	246a4 <__muldf3+0x610>
   2474c:	00800434 	movhi	r2,16
   24750:	9cc00234 	orhi	r19,r19,8
   24754:	10bfffc4 	addi	r2,r2,-1
   24758:	98a6703a 	and	r19,r19,r2
   2475c:	a00d883a 	mov	r6,r20
   24760:	003fd006 	br	246a4 <__muldf3+0x610>
   24764:	00252900 	call	25290 <__clzsi2>
   24768:	11000544 	addi	r4,r2,21
   2476c:	21400748 	cmpgei	r5,r4,29
   24770:	1007883a 	mov	r3,r2
   24774:	d9c00017 	ldw	r7,0(sp)
   24778:	10800804 	addi	r2,r2,32
   2477c:	283f9526 	beq	r5,zero,245d4 <__muldf3+0x540>
   24780:	18fffe04 	addi	r3,r3,-8
   24784:	88e6983a 	sll	r19,r17,r3
   24788:	0025883a 	mov	r18,zero
   2478c:	003f9806 	br	245f0 <__muldf3+0x55c>
   24790:	e009883a 	mov	r4,fp
   24794:	00252900 	call	25290 <__clzsi2>
   24798:	11400544 	addi	r5,r2,21
   2479c:	29000748 	cmpgei	r4,r5,29
   247a0:	1007883a 	mov	r3,r2
   247a4:	da000017 	ldw	r8,0(sp)
   247a8:	10800804 	addi	r2,r2,32
   247ac:	203f7626 	beq	r4,zero,24588 <__muldf3+0x4f4>
   247b0:	1c3ffe04 	addi	r16,r3,-8
   247b4:	e420983a 	sll	r16,fp,r16
   247b8:	0023883a 	mov	r17,zero
   247bc:	003f7906 	br	245a4 <__muldf3+0x510>
   247c0:	400f883a 	mov	r7,r8
   247c4:	003f4e06 	br	24500 <__muldf3+0x46c>
   247c8:	00fff844 	movi	r3,-31
   247cc:	1907c83a 	sub	r3,r3,r4
   247d0:	10800820 	cmpeqi	r2,r2,32
   247d4:	98c6d83a 	srl	r3,r19,r3
   247d8:	1000031e 	bne	r2,zero,247e8 <__muldf3+0x754>
   247dc:	39c10f84 	addi	r7,r7,1086
   247e0:	99e6983a 	sll	r19,r19,r7
   247e4:	94e4b03a 	or	r18,r18,r19
   247e8:	9024c03a 	cmpne	r18,r18,zero
   247ec:	90c4b03a 	or	r2,r18,r3
   247f0:	148001cc 	andi	r18,r2,7
   247f4:	9000051e 	bne	r18,zero,2480c <__muldf3+0x778>
   247f8:	0027883a 	mov	r19,zero
   247fc:	1004d0fa 	srli	r2,r2,3
   24800:	0007883a 	mov	r3,zero
   24804:	14a4b03a 	or	r18,r2,r18
   24808:	003e7706 	br	241e8 <__muldf3+0x154>
   2480c:	10c003cc 	andi	r3,r2,15
   24810:	18c00118 	cmpnei	r3,r3,4
   24814:	0027883a 	mov	r19,zero
   24818:	183fb71e 	bne	r3,zero,246f8 <__muldf3+0x664>
   2481c:	9806927a 	slli	r3,r19,9
   24820:	9824977a 	slli	r18,r19,29
   24824:	1826d33a 	srli	r19,r3,12
   24828:	003ff406 	br	247fc <__muldf3+0x768>
   2482c:	00800434 	movhi	r2,16
   24830:	9cc00234 	orhi	r19,r19,8
   24834:	10bfffc4 	addi	r2,r2,-1
   24838:	98a6703a 	and	r19,r19,r2
   2483c:	003f9906 	br	246a4 <__muldf3+0x610>

00024840 <__subdf3>:
   24840:	00800434 	movhi	r2,16
   24844:	3810d53a 	srli	r8,r7,20
   24848:	10bfffc4 	addi	r2,r2,-1
   2484c:	2806d53a 	srli	r3,r5,20
   24850:	2892703a 	and	r9,r5,r2
   24854:	3884703a 	and	r2,r7,r2
   24858:	280ad7fa 	srli	r5,r5,31
   2485c:	481290fa 	slli	r9,r9,3
   24860:	2018d77a 	srli	r12,r4,29
   24864:	100490fa 	slli	r2,r2,3
   24868:	3016d77a 	srli	r11,r6,29
   2486c:	defffb04 	addi	sp,sp,-20
   24870:	4201ffcc 	andi	r8,r8,2047
   24874:	dc800215 	stw	r18,8(sp)
   24878:	dc400115 	stw	r17,4(sp)
   2487c:	1c81ffcc 	andi	r18,r3,2047
   24880:	dfc00415 	stw	ra,16(sp)
   24884:	dcc00315 	stw	r19,12(sp)
   24888:	dc000015 	stw	r16,0(sp)
   2488c:	4281ffd8 	cmpnei	r10,r8,2047
   24890:	2823883a 	mov	r17,r5
   24894:	201c90fa 	slli	r14,r4,3
   24898:	380ed7fa 	srli	r7,r7,31
   2489c:	301a90fa 	slli	r13,r6,3
   248a0:	29403fcc 	andi	r5,r5,255
   248a4:	6252b03a 	or	r9,r12,r9
   248a8:	589eb03a 	or	r15,r11,r2
   248ac:	9207c83a 	sub	r3,r18,r8
   248b0:	50006826 	beq	r10,zero,24a54 <__subdf3+0x214>
   248b4:	3ac0005c 	xori	r11,r7,1
   248b8:	2ac07326 	beq	r5,r11,24a88 <__subdf3+0x248>
   248bc:	00c0590e 	bge	zero,r3,24a24 <__subdf3+0x1e4>
   248c0:	4000691e 	bne	r8,zero,24a68 <__subdf3+0x228>
   248c4:	7b44b03a 	or	r2,r15,r13
   248c8:	1000fb26 	beq	r2,zero,24cb8 <__subdf3+0x478>
   248cc:	18bfffc4 	addi	r2,r3,-1
   248d0:	10019126 	beq	r2,zero,24f18 <__subdf3+0x6d8>
   248d4:	18c1ffd8 	cmpnei	r3,r3,2047
   248d8:	1800c326 	beq	r3,zero,24be8 <__subdf3+0x3a8>
   248dc:	1007883a 	mov	r3,r2
   248e0:	18800e48 	cmpgei	r2,r3,57
   248e4:	1000651e 	bne	r2,zero,24a7c <__subdf3+0x23c>
   248e8:	18800808 	cmpgei	r2,r3,32
   248ec:	1001331e 	bne	r2,zero,24dbc <__subdf3+0x57c>
   248f0:	00800804 	movi	r2,32
   248f4:	10c5c83a 	sub	r2,r2,r3
   248f8:	78a0983a 	sll	r16,r15,r2
   248fc:	68c8d83a 	srl	r4,r13,r3
   24900:	689a983a 	sll	r13,r13,r2
   24904:	78c4d83a 	srl	r2,r15,r3
   24908:	8120b03a 	or	r16,r16,r4
   2490c:	681ac03a 	cmpne	r13,r13,zero
   24910:	8360b03a 	or	r16,r16,r13
   24914:	4893c83a 	sub	r9,r9,r2
   24918:	7421c83a 	sub	r16,r14,r16
   2491c:	7409803a 	cmpltu	r4,r14,r16
   24920:	4909c83a 	sub	r4,r9,r4
   24924:	2080202c 	andhi	r2,r4,128
   24928:	10009326 	beq	r2,zero,24b78 <__subdf3+0x338>
   2492c:	04c02034 	movhi	r19,128
   24930:	9cffffc4 	addi	r19,r19,-1
   24934:	24e6703a 	and	r19,r4,r19
   24938:	9800b926 	beq	r19,zero,24c20 <__subdf3+0x3e0>
   2493c:	9809883a 	mov	r4,r19
   24940:	00252900 	call	25290 <__clzsi2>
   24944:	10fffe04 	addi	r3,r2,-8
   24948:	01000804 	movi	r4,32
   2494c:	20c9c83a 	sub	r4,r4,r3
   24950:	8108d83a 	srl	r4,r16,r4
   24954:	98e6983a 	sll	r19,r19,r3
   24958:	80e0983a 	sll	r16,r16,r3
   2495c:	24c8b03a 	or	r4,r4,r19
   24960:	1c80b816 	blt	r3,r18,24c44 <__subdf3+0x404>
   24964:	1c87c83a 	sub	r3,r3,r18
   24968:	19400044 	addi	r5,r3,1
   2496c:	28800808 	cmpgei	r2,r5,32
   24970:	1000751e 	bne	r2,zero,24b48 <__subdf3+0x308>
   24974:	00800804 	movi	r2,32
   24978:	1145c83a 	sub	r2,r2,r5
   2497c:	8146d83a 	srl	r3,r16,r5
   24980:	80a0983a 	sll	r16,r16,r2
   24984:	2084983a 	sll	r2,r4,r2
   24988:	2148d83a 	srl	r4,r4,r5
   2498c:	8020c03a 	cmpne	r16,r16,zero
   24990:	10c4b03a 	or	r2,r2,r3
   24994:	1420b03a 	or	r16,r2,r16
   24998:	0025883a 	mov	r18,zero
   2499c:	808001cc 	andi	r2,r16,7
   249a0:	10000726 	beq	r2,zero,249c0 <__subdf3+0x180>
   249a4:	808003cc 	andi	r2,r16,15
   249a8:	10800120 	cmpeqi	r2,r2,4
   249ac:	1000041e 	bne	r2,zero,249c0 <__subdf3+0x180>
   249b0:	80800104 	addi	r2,r16,4
   249b4:	1421803a 	cmpltu	r16,r2,r16
   249b8:	2409883a 	add	r4,r4,r16
   249bc:	1021883a 	mov	r16,r2
   249c0:	2080202c 	andhi	r2,r4,128
   249c4:	10006e26 	beq	r2,zero,24b80 <__subdf3+0x340>
   249c8:	90c00044 	addi	r3,r18,1
   249cc:	1881ffe0 	cmpeqi	r2,r3,2047
   249d0:	18c1ffcc 	andi	r3,r3,2047
   249d4:	1000801e 	bne	r2,zero,24bd8 <__subdf3+0x398>
   249d8:	00bfe034 	movhi	r2,65408
   249dc:	10bfffc4 	addi	r2,r2,-1
   249e0:	2088703a 	and	r4,r4,r2
   249e4:	2004977a 	slli	r2,r4,29
   249e8:	2008927a 	slli	r4,r4,9
   249ec:	8020d0fa 	srli	r16,r16,3
   249f0:	2008d33a 	srli	r4,r4,12
   249f4:	1404b03a 	or	r2,r2,r16
   249f8:	1806953a 	slli	r3,r3,20
   249fc:	882297fa 	slli	r17,r17,31
   24a00:	1906b03a 	or	r3,r3,r4
   24a04:	1c46b03a 	or	r3,r3,r17
   24a08:	dfc00417 	ldw	ra,16(sp)
   24a0c:	dcc00317 	ldw	r19,12(sp)
   24a10:	dc800217 	ldw	r18,8(sp)
   24a14:	dc400117 	ldw	r17,4(sp)
   24a18:	dc000017 	ldw	r16,0(sp)
   24a1c:	dec00504 	addi	sp,sp,20
   24a20:	f800283a 	ret
   24a24:	18002c26 	beq	r3,zero,24ad8 <__subdf3+0x298>
   24a28:	4487c83a 	sub	r3,r8,r18
   24a2c:	5823883a 	mov	r17,r11
   24a30:	9000bb1e 	bne	r18,zero,24d20 <__subdf3+0x4e0>
   24a34:	4b84b03a 	or	r2,r9,r14
   24a38:	10011726 	beq	r2,zero,24e98 <__subdf3+0x658>
   24a3c:	18bfffc4 	addi	r2,r3,-1
   24a40:	10016326 	beq	r2,zero,24fd0 <__subdf3+0x790>
   24a44:	18c1ffd8 	cmpnei	r3,r3,2047
   24a48:	18012c26 	beq	r3,zero,24efc <__subdf3+0x6bc>
   24a4c:	1007883a 	mov	r3,r2
   24a50:	0000b506 	br	24d28 <__subdf3+0x4e8>
   24a54:	7b44b03a 	or	r2,r15,r13
   24a58:	103f9626 	beq	r2,zero,248b4 <__subdf3+0x74>
   24a5c:	3ac03fcc 	andi	r11,r7,255
   24a60:	29c07d26 	beq	r5,r7,24c58 <__subdf3+0x418>
   24a64:	00ffef0e 	bge	zero,r3,24a24 <__subdf3+0x1e4>
   24a68:	9081ffd8 	cmpnei	r2,r18,2047
   24a6c:	10005e26 	beq	r2,zero,24be8 <__subdf3+0x3a8>
   24a70:	18800e48 	cmpgei	r2,r3,57
   24a74:	7bc02034 	orhi	r15,r15,128
   24a78:	103f9b26 	beq	r2,zero,248e8 <__subdf3+0xa8>
   24a7c:	7b60b03a 	or	r16,r15,r13
   24a80:	8020c03a 	cmpne	r16,r16,zero
   24a84:	003fa406 	br	24918 <__subdf3+0xd8>
   24a88:	00c0730e 	bge	zero,r3,24c58 <__subdf3+0x418>
   24a8c:	40002626 	beq	r8,zero,24b28 <__subdf3+0x2e8>
   24a90:	9081ffd8 	cmpnei	r2,r18,2047
   24a94:	10005426 	beq	r2,zero,24be8 <__subdf3+0x3a8>
   24a98:	7bc02034 	orhi	r15,r15,128
   24a9c:	18800e48 	cmpgei	r2,r3,57
   24aa0:	1000431e 	bne	r2,zero,24bb0 <__subdf3+0x370>
   24aa4:	18800808 	cmpgei	r2,r3,32
   24aa8:	1000de26 	beq	r2,zero,24e24 <__subdf3+0x5e4>
   24aac:	1c3ff804 	addi	r16,r3,-32
   24ab0:	18800820 	cmpeqi	r2,r3,32
   24ab4:	7c0ad83a 	srl	r5,r15,r16
   24ab8:	1000041e 	bne	r2,zero,24acc <__subdf3+0x28c>
   24abc:	00801004 	movi	r2,64
   24ac0:	10c5c83a 	sub	r2,r2,r3
   24ac4:	7884983a 	sll	r2,r15,r2
   24ac8:	689ab03a 	or	r13,r13,r2
   24acc:	6820c03a 	cmpne	r16,r13,zero
   24ad0:	8160b03a 	or	r16,r16,r5
   24ad4:	00003806 	br	24bb8 <__subdf3+0x378>
   24ad8:	90800044 	addi	r2,r18,1
   24adc:	1081ff8c 	andi	r2,r2,2046
   24ae0:	1000a01e 	bne	r2,zero,24d64 <__subdf3+0x524>
   24ae4:	4b8ab03a 	or	r5,r9,r14
   24ae8:	7b44b03a 	or	r2,r15,r13
   24aec:	9000f11e 	bne	r18,zero,24eb4 <__subdf3+0x674>
   24af0:	28012e26 	beq	r5,zero,24fac <__subdf3+0x76c>
   24af4:	10010e26 	beq	r2,zero,24f30 <__subdf3+0x6f0>
   24af8:	7361c83a 	sub	r16,r14,r13
   24afc:	7405803a 	cmpltu	r2,r14,r16
   24b00:	4bc9c83a 	sub	r4,r9,r15
   24b04:	2089c83a 	sub	r4,r4,r2
   24b08:	2080202c 	andhi	r2,r4,128
   24b0c:	10016d26 	beq	r2,zero,250c4 <__subdf3+0x884>
   24b10:	6ba1c83a 	sub	r16,r13,r14
   24b14:	7a49c83a 	sub	r4,r15,r9
   24b18:	6c1b803a 	cmpltu	r13,r13,r16
   24b1c:	2349c83a 	sub	r4,r4,r13
   24b20:	5823883a 	mov	r17,r11
   24b24:	003f9d06 	br	2499c <__subdf3+0x15c>
   24b28:	7b44b03a 	or	r2,r15,r13
   24b2c:	10006226 	beq	r2,zero,24cb8 <__subdf3+0x478>
   24b30:	18bfffc4 	addi	r2,r3,-1
   24b34:	1000e926 	beq	r2,zero,24edc <__subdf3+0x69c>
   24b38:	18c1ffd8 	cmpnei	r3,r3,2047
   24b3c:	18012a26 	beq	r3,zero,24fe8 <__subdf3+0x7a8>
   24b40:	1007883a 	mov	r3,r2
   24b44:	003fd506 	br	24a9c <__subdf3+0x25c>
   24b48:	18fff844 	addi	r3,r3,-31
   24b4c:	28800820 	cmpeqi	r2,r5,32
   24b50:	20c6d83a 	srl	r3,r4,r3
   24b54:	1000041e 	bne	r2,zero,24b68 <__subdf3+0x328>
   24b58:	00801004 	movi	r2,64
   24b5c:	114bc83a 	sub	r5,r2,r5
   24b60:	2148983a 	sll	r4,r4,r5
   24b64:	8120b03a 	or	r16,r16,r4
   24b68:	8020c03a 	cmpne	r16,r16,zero
   24b6c:	80e0b03a 	or	r16,r16,r3
   24b70:	0009883a 	mov	r4,zero
   24b74:	0025883a 	mov	r18,zero
   24b78:	808001cc 	andi	r2,r16,7
   24b7c:	103f891e 	bne	r2,zero,249a4 <__subdf3+0x164>
   24b80:	8020d0fa 	srli	r16,r16,3
   24b84:	2004977a 	slli	r2,r4,29
   24b88:	2012d0fa 	srli	r9,r4,3
   24b8c:	9007883a 	mov	r3,r18
   24b90:	8084b03a 	or	r2,r16,r2
   24b94:	1901ffe0 	cmpeqi	r4,r3,2047
   24b98:	2000191e 	bne	r4,zero,24c00 <__subdf3+0x3c0>
   24b9c:	01000434 	movhi	r4,16
   24ba0:	213fffc4 	addi	r4,r4,-1
   24ba4:	4908703a 	and	r4,r9,r4
   24ba8:	18c1ffcc 	andi	r3,r3,2047
   24bac:	003f9206 	br	249f8 <__subdf3+0x1b8>
   24bb0:	7b60b03a 	or	r16,r15,r13
   24bb4:	8020c03a 	cmpne	r16,r16,zero
   24bb8:	83a1883a 	add	r16,r16,r14
   24bbc:	8389803a 	cmpltu	r4,r16,r14
   24bc0:	2249883a 	add	r4,r4,r9
   24bc4:	2080202c 	andhi	r2,r4,128
   24bc8:	103feb26 	beq	r2,zero,24b78 <__subdf3+0x338>
   24bcc:	94800044 	addi	r18,r18,1
   24bd0:	9081ffe0 	cmpeqi	r2,r18,2047
   24bd4:	10006f26 	beq	r2,zero,24d94 <__subdf3+0x554>
   24bd8:	00c1ffc4 	movi	r3,2047
   24bdc:	0009883a 	mov	r4,zero
   24be0:	0005883a 	mov	r2,zero
   24be4:	003f8406 	br	249f8 <__subdf3+0x1b8>
   24be8:	4806977a 	slli	r3,r9,29
   24bec:	00880034 	movhi	r2,8192
   24bf0:	10bfffc4 	addi	r2,r2,-1
   24bf4:	4812d0fa 	srli	r9,r9,3
   24bf8:	2088703a 	and	r4,r4,r2
   24bfc:	20c4b03a 	or	r2,r4,r3
   24c00:	4886b03a 	or	r3,r9,r2
   24c04:	18013726 	beq	r3,zero,250e4 <__subdf3+0x8a4>
   24c08:	00c00434 	movhi	r3,16
   24c0c:	18ffffc4 	addi	r3,r3,-1
   24c10:	49000234 	orhi	r4,r9,8
   24c14:	20c8703a 	and	r4,r4,r3
   24c18:	00c1ffc4 	movi	r3,2047
   24c1c:	003f7606 	br	249f8 <__subdf3+0x1b8>
   24c20:	8009883a 	mov	r4,r16
   24c24:	00252900 	call	25290 <__clzsi2>
   24c28:	10c00604 	addi	r3,r2,24
   24c2c:	19000808 	cmpgei	r4,r3,32
   24c30:	203f4526 	beq	r4,zero,24948 <__subdf3+0x108>
   24c34:	113ffe04 	addi	r4,r2,-8
   24c38:	8108983a 	sll	r4,r16,r4
   24c3c:	0021883a 	mov	r16,zero
   24c40:	1cbf480e 	bge	r3,r18,24964 <__subdf3+0x124>
   24c44:	00bfe034 	movhi	r2,65408
   24c48:	10bfffc4 	addi	r2,r2,-1
   24c4c:	90e5c83a 	sub	r18,r18,r3
   24c50:	2088703a 	and	r4,r4,r2
   24c54:	003f5106 	br	2499c <__subdf3+0x15c>
   24c58:	18001e26 	beq	r3,zero,24cd4 <__subdf3+0x494>
   24c5c:	4487c83a 	sub	r3,r8,r18
   24c60:	90006826 	beq	r18,zero,24e04 <__subdf3+0x5c4>
   24c64:	5000a526 	beq	r10,zero,24efc <__subdf3+0x6bc>
   24c68:	4a402034 	orhi	r9,r9,128
   24c6c:	18800e48 	cmpgei	r2,r3,57
   24c70:	1000b61e 	bne	r2,zero,24f4c <__subdf3+0x70c>
   24c74:	18800808 	cmpgei	r2,r3,32
   24c78:	1001021e 	bne	r2,zero,25084 <__subdf3+0x844>
   24c7c:	00800804 	movi	r2,32
   24c80:	10c5c83a 	sub	r2,r2,r3
   24c84:	48a0983a 	sll	r16,r9,r2
   24c88:	70c8d83a 	srl	r4,r14,r3
   24c8c:	7084983a 	sll	r2,r14,r2
   24c90:	48d2d83a 	srl	r9,r9,r3
   24c94:	8120b03a 	or	r16,r16,r4
   24c98:	1004c03a 	cmpne	r2,r2,zero
   24c9c:	80a0b03a 	or	r16,r16,r2
   24ca0:	7a5f883a 	add	r15,r15,r9
   24ca4:	8361883a 	add	r16,r16,r13
   24ca8:	8349803a 	cmpltu	r4,r16,r13
   24cac:	23c9883a 	add	r4,r4,r15
   24cb0:	4025883a 	mov	r18,r8
   24cb4:	003fc306 	br	24bc4 <__subdf3+0x384>
   24cb8:	480a977a 	slli	r5,r9,29
   24cbc:	00880034 	movhi	r2,8192
   24cc0:	10bfffc4 	addi	r2,r2,-1
   24cc4:	2088703a 	and	r4,r4,r2
   24cc8:	4812d0fa 	srli	r9,r9,3
   24ccc:	2144b03a 	or	r2,r4,r5
   24cd0:	003fb006 	br	24b94 <__subdf3+0x354>
   24cd4:	90800044 	addi	r2,r18,1
   24cd8:	1141ff8c 	andi	r5,r2,2046
   24cdc:	28005c1e 	bne	r5,zero,24e50 <__subdf3+0x610>
   24ce0:	4b84b03a 	or	r2,r9,r14
   24ce4:	9000a71e 	bne	r18,zero,24f84 <__subdf3+0x744>
   24ce8:	1000df26 	beq	r2,zero,25068 <__subdf3+0x828>
   24cec:	7b44b03a 	or	r2,r15,r13
   24cf0:	10008f26 	beq	r2,zero,24f30 <__subdf3+0x6f0>
   24cf4:	7361883a 	add	r16,r14,r13
   24cf8:	4bc9883a 	add	r4,r9,r15
   24cfc:	839d803a 	cmpltu	r14,r16,r14
   24d00:	2389883a 	add	r4,r4,r14
   24d04:	2080202c 	andhi	r2,r4,128
   24d08:	103f9b26 	beq	r2,zero,24b78 <__subdf3+0x338>
   24d0c:	00bfe034 	movhi	r2,65408
   24d10:	10bfffc4 	addi	r2,r2,-1
   24d14:	2088703a 	and	r4,r4,r2
   24d18:	04800044 	movi	r18,1
   24d1c:	003f9606 	br	24b78 <__subdf3+0x338>
   24d20:	50007626 	beq	r10,zero,24efc <__subdf3+0x6bc>
   24d24:	4a402034 	orhi	r9,r9,128
   24d28:	18800e48 	cmpgei	r2,r3,57
   24d2c:	10002e1e 	bne	r2,zero,24de8 <__subdf3+0x5a8>
   24d30:	18800808 	cmpgei	r2,r3,32
   24d34:	1000881e 	bne	r2,zero,24f58 <__subdf3+0x718>
   24d38:	00800804 	movi	r2,32
   24d3c:	10c5c83a 	sub	r2,r2,r3
   24d40:	48a0983a 	sll	r16,r9,r2
   24d44:	70c8d83a 	srl	r4,r14,r3
   24d48:	709c983a 	sll	r14,r14,r2
   24d4c:	48d2d83a 	srl	r9,r9,r3
   24d50:	8120b03a 	or	r16,r16,r4
   24d54:	701cc03a 	cmpne	r14,r14,zero
   24d58:	83a0b03a 	or	r16,r16,r14
   24d5c:	7a5fc83a 	sub	r15,r15,r9
   24d60:	00002306 	br	24df0 <__subdf3+0x5b0>
   24d64:	7361c83a 	sub	r16,r14,r13
   24d68:	4be7c83a 	sub	r19,r9,r15
   24d6c:	7409803a 	cmpltu	r4,r14,r16
   24d70:	9927c83a 	sub	r19,r19,r4
   24d74:	9880202c 	andhi	r2,r19,128
   24d78:	1000411e 	bne	r2,zero,24e80 <__subdf3+0x640>
   24d7c:	84c4b03a 	or	r2,r16,r19
   24d80:	103eed1e 	bne	r2,zero,24938 <__subdf3+0xf8>
   24d84:	0013883a 	mov	r9,zero
   24d88:	0023883a 	mov	r17,zero
   24d8c:	003f8306 	br	24b9c <__subdf3+0x35c>
   24d90:	04800084 	movi	r18,2
   24d94:	00bfe034 	movhi	r2,65408
   24d98:	10bfffc4 	addi	r2,r2,-1
   24d9c:	8006d07a 	srli	r3,r16,1
   24da0:	2088703a 	and	r4,r4,r2
   24da4:	200497fa 	slli	r2,r4,31
   24da8:	8400004c 	andi	r16,r16,1
   24dac:	1c20b03a 	or	r16,r3,r16
   24db0:	2008d07a 	srli	r4,r4,1
   24db4:	1420b03a 	or	r16,r2,r16
   24db8:	003ef806 	br	2499c <__subdf3+0x15c>
   24dbc:	1c3ff804 	addi	r16,r3,-32
   24dc0:	18800820 	cmpeqi	r2,r3,32
   24dc4:	7c0ad83a 	srl	r5,r15,r16
   24dc8:	1000041e 	bne	r2,zero,24ddc <__subdf3+0x59c>
   24dcc:	00801004 	movi	r2,64
   24dd0:	10c5c83a 	sub	r2,r2,r3
   24dd4:	7884983a 	sll	r2,r15,r2
   24dd8:	689ab03a 	or	r13,r13,r2
   24ddc:	6820c03a 	cmpne	r16,r13,zero
   24de0:	8160b03a 	or	r16,r16,r5
   24de4:	003ecc06 	br	24918 <__subdf3+0xd8>
   24de8:	4b92b03a 	or	r9,r9,r14
   24dec:	4820c03a 	cmpne	r16,r9,zero
   24df0:	6c21c83a 	sub	r16,r13,r16
   24df4:	6c09803a 	cmpltu	r4,r13,r16
   24df8:	7909c83a 	sub	r4,r15,r4
   24dfc:	4025883a 	mov	r18,r8
   24e00:	003ec806 	br	24924 <__subdf3+0xe4>
   24e04:	4b84b03a 	or	r2,r9,r14
   24e08:	10007e26 	beq	r2,zero,25004 <__subdf3+0x7c4>
   24e0c:	18bfffc4 	addi	r2,r3,-1
   24e10:	1000a726 	beq	r2,zero,250b0 <__subdf3+0x870>
   24e14:	18c1ffd8 	cmpnei	r3,r3,2047
   24e18:	18003826 	beq	r3,zero,24efc <__subdf3+0x6bc>
   24e1c:	1007883a 	mov	r3,r2
   24e20:	003f9206 	br	24c6c <__subdf3+0x42c>
   24e24:	00800804 	movi	r2,32
   24e28:	10c5c83a 	sub	r2,r2,r3
   24e2c:	78a0983a 	sll	r16,r15,r2
   24e30:	68c8d83a 	srl	r4,r13,r3
   24e34:	689a983a 	sll	r13,r13,r2
   24e38:	78c4d83a 	srl	r2,r15,r3
   24e3c:	8120b03a 	or	r16,r16,r4
   24e40:	681ac03a 	cmpne	r13,r13,zero
   24e44:	8360b03a 	or	r16,r16,r13
   24e48:	4893883a 	add	r9,r9,r2
   24e4c:	003f5a06 	br	24bb8 <__subdf3+0x378>
   24e50:	10c1ffe0 	cmpeqi	r3,r2,2047
   24e54:	183f601e 	bne	r3,zero,24bd8 <__subdf3+0x398>
   24e58:	735b883a 	add	r13,r14,r13
   24e5c:	6b9d803a 	cmpltu	r14,r13,r14
   24e60:	4bc9883a 	add	r4,r9,r15
   24e64:	2389883a 	add	r4,r4,r14
   24e68:	202097fa 	slli	r16,r4,31
   24e6c:	681ad07a 	srli	r13,r13,1
   24e70:	2008d07a 	srli	r4,r4,1
   24e74:	1025883a 	mov	r18,r2
   24e78:	8360b03a 	or	r16,r16,r13
   24e7c:	003f3e06 	br	24b78 <__subdf3+0x338>
   24e80:	6ba1c83a 	sub	r16,r13,r14
   24e84:	7a49c83a 	sub	r4,r15,r9
   24e88:	6c1b803a 	cmpltu	r13,r13,r16
   24e8c:	2367c83a 	sub	r19,r4,r13
   24e90:	5823883a 	mov	r17,r11
   24e94:	003ea806 	br	24938 <__subdf3+0xf8>
   24e98:	7808977a 	slli	r4,r15,29
   24e9c:	00880034 	movhi	r2,8192
   24ea0:	10bfffc4 	addi	r2,r2,-1
   24ea4:	308c703a 	and	r6,r6,r2
   24ea8:	7812d0fa 	srli	r9,r15,3
   24eac:	3104b03a 	or	r2,r6,r4
   24eb0:	003f3806 	br	24b94 <__subdf3+0x354>
   24eb4:	28005a1e 	bne	r5,zero,25020 <__subdf3+0x7e0>
   24eb8:	10008526 	beq	r2,zero,250d0 <__subdf3+0x890>
   24ebc:	7806977a 	slli	r3,r15,29
   24ec0:	00880034 	movhi	r2,8192
   24ec4:	10bfffc4 	addi	r2,r2,-1
   24ec8:	3084703a 	and	r2,r6,r2
   24ecc:	7812d0fa 	srli	r9,r15,3
   24ed0:	10c4b03a 	or	r2,r2,r3
   24ed4:	5823883a 	mov	r17,r11
   24ed8:	003f4906 	br	24c00 <__subdf3+0x3c0>
   24edc:	7361883a 	add	r16,r14,r13
   24ee0:	4bc9883a 	add	r4,r9,r15
   24ee4:	839d803a 	cmpltu	r14,r16,r14
   24ee8:	2389883a 	add	r4,r4,r14
   24eec:	2080202c 	andhi	r2,r4,128
   24ef0:	103fa71e 	bne	r2,zero,24d90 <__subdf3+0x550>
   24ef4:	04800044 	movi	r18,1
   24ef8:	003f1f06 	br	24b78 <__subdf3+0x338>
   24efc:	7806977a 	slli	r3,r15,29
   24f00:	00880034 	movhi	r2,8192
   24f04:	10bfffc4 	addi	r2,r2,-1
   24f08:	3084703a 	and	r2,r6,r2
   24f0c:	7812d0fa 	srli	r9,r15,3
   24f10:	10c4b03a 	or	r2,r2,r3
   24f14:	003f3a06 	br	24c00 <__subdf3+0x3c0>
   24f18:	7361c83a 	sub	r16,r14,r13
   24f1c:	4bc9c83a 	sub	r4,r9,r15
   24f20:	741d803a 	cmpltu	r14,r14,r16
   24f24:	2389c83a 	sub	r4,r4,r14
   24f28:	04800044 	movi	r18,1
   24f2c:	003e7d06 	br	24924 <__subdf3+0xe4>
   24f30:	480a977a 	slli	r5,r9,29
   24f34:	00880034 	movhi	r2,8192
   24f38:	10bfffc4 	addi	r2,r2,-1
   24f3c:	2084703a 	and	r2,r4,r2
   24f40:	4812d0fa 	srli	r9,r9,3
   24f44:	1144b03a 	or	r2,r2,r5
   24f48:	003f1406 	br	24b9c <__subdf3+0x35c>
   24f4c:	4b92b03a 	or	r9,r9,r14
   24f50:	4820c03a 	cmpne	r16,r9,zero
   24f54:	003f5306 	br	24ca4 <__subdf3+0x464>
   24f58:	1c3ff804 	addi	r16,r3,-32
   24f5c:	19000820 	cmpeqi	r4,r3,32
   24f60:	4c04d83a 	srl	r2,r9,r16
   24f64:	2000041e 	bne	r4,zero,24f78 <__subdf3+0x738>
   24f68:	01001004 	movi	r4,64
   24f6c:	20c7c83a 	sub	r3,r4,r3
   24f70:	48d2983a 	sll	r9,r9,r3
   24f74:	725cb03a 	or	r14,r14,r9
   24f78:	7020c03a 	cmpne	r16,r14,zero
   24f7c:	80a0b03a 	or	r16,r16,r2
   24f80:	003f9b06 	br	24df0 <__subdf3+0x5b0>
   24f84:	103fdd26 	beq	r2,zero,24efc <__subdf3+0x6bc>
   24f88:	7b5ab03a 	or	r13,r15,r13
   24f8c:	480a977a 	slli	r5,r9,29
   24f90:	4812d0fa 	srli	r9,r9,3
   24f94:	6800251e 	bne	r13,zero,2502c <__subdf3+0x7ec>
   24f98:	00880034 	movhi	r2,8192
   24f9c:	10bfffc4 	addi	r2,r2,-1
   24fa0:	2084703a 	and	r2,r4,r2
   24fa4:	1144b03a 	or	r2,r2,r5
   24fa8:	003f1506 	br	24c00 <__subdf3+0x3c0>
   24fac:	103f7526 	beq	r2,zero,24d84 <__subdf3+0x544>
   24fb0:	7808977a 	slli	r4,r15,29
   24fb4:	00880034 	movhi	r2,8192
   24fb8:	10bfffc4 	addi	r2,r2,-1
   24fbc:	3084703a 	and	r2,r6,r2
   24fc0:	7812d0fa 	srli	r9,r15,3
   24fc4:	1104b03a 	or	r2,r2,r4
   24fc8:	5823883a 	mov	r17,r11
   24fcc:	003ef306 	br	24b9c <__subdf3+0x35c>
   24fd0:	6ba1c83a 	sub	r16,r13,r14
   24fd4:	7a49c83a 	sub	r4,r15,r9
   24fd8:	6c1b803a 	cmpltu	r13,r13,r16
   24fdc:	2349c83a 	sub	r4,r4,r13
   24fe0:	04800044 	movi	r18,1
   24fe4:	003e4f06 	br	24924 <__subdf3+0xe4>
   24fe8:	4806977a 	slli	r3,r9,29
   24fec:	00880034 	movhi	r2,8192
   24ff0:	10bfffc4 	addi	r2,r2,-1
   24ff4:	2084703a 	and	r2,r4,r2
   24ff8:	4812d0fa 	srli	r9,r9,3
   24ffc:	10c4b03a 	or	r2,r2,r3
   25000:	003eff06 	br	24c00 <__subdf3+0x3c0>
   25004:	7808977a 	slli	r4,r15,29
   25008:	00880034 	movhi	r2,8192
   2500c:	10bfffc4 	addi	r2,r2,-1
   25010:	3084703a 	and	r2,r6,r2
   25014:	7812d0fa 	srli	r9,r15,3
   25018:	1104b03a 	or	r2,r2,r4
   2501c:	003edd06 	br	24b94 <__subdf3+0x354>
   25020:	480a977a 	slli	r5,r9,29
   25024:	4812d0fa 	srli	r9,r9,3
   25028:	103fdb26 	beq	r2,zero,24f98 <__subdf3+0x758>
   2502c:	00c80034 	movhi	r3,8192
   25030:	18ffffc4 	addi	r3,r3,-1
   25034:	20c4703a 	and	r2,r4,r3
   25038:	4900022c 	andhi	r4,r9,8
   2503c:	1144b03a 	or	r2,r2,r5
   25040:	203eef26 	beq	r4,zero,24c00 <__subdf3+0x3c0>
   25044:	7808d0fa 	srli	r4,r15,3
   25048:	2140022c 	andhi	r5,r4,8
   2504c:	283eec1e 	bne	r5,zero,24c00 <__subdf3+0x3c0>
   25050:	7804977a 	slli	r2,r15,29
   25054:	30cc703a 	and	r6,r6,r3
   25058:	5823883a 	mov	r17,r11
   2505c:	3084b03a 	or	r2,r6,r2
   25060:	2013883a 	mov	r9,r4
   25064:	003ee606 	br	24c00 <__subdf3+0x3c0>
   25068:	7808977a 	slli	r4,r15,29
   2506c:	00880034 	movhi	r2,8192
   25070:	10bfffc4 	addi	r2,r2,-1
   25074:	3084703a 	and	r2,r6,r2
   25078:	7812d0fa 	srli	r9,r15,3
   2507c:	1104b03a 	or	r2,r2,r4
   25080:	003ec606 	br	24b9c <__subdf3+0x35c>
   25084:	18bff804 	addi	r2,r3,-32
   25088:	19000820 	cmpeqi	r4,r3,32
   2508c:	4884d83a 	srl	r2,r9,r2
   25090:	2000041e 	bne	r4,zero,250a4 <__subdf3+0x864>
   25094:	01001004 	movi	r4,64
   25098:	20c7c83a 	sub	r3,r4,r3
   2509c:	48d2983a 	sll	r9,r9,r3
   250a0:	725cb03a 	or	r14,r14,r9
   250a4:	7020c03a 	cmpne	r16,r14,zero
   250a8:	80a0b03a 	or	r16,r16,r2
   250ac:	003efd06 	br	24ca4 <__subdf3+0x464>
   250b0:	7361883a 	add	r16,r14,r13
   250b4:	4bc9883a 	add	r4,r9,r15
   250b8:	835b803a 	cmpltu	r13,r16,r13
   250bc:	2349883a 	add	r4,r4,r13
   250c0:	003f8a06 	br	24eec <__subdf3+0x6ac>
   250c4:	8104b03a 	or	r2,r16,r4
   250c8:	103f2e26 	beq	r2,zero,24d84 <__subdf3+0x544>
   250cc:	003eaa06 	br	24b78 <__subdf3+0x338>
   250d0:	02400434 	movhi	r9,16
   250d4:	0023883a 	mov	r17,zero
   250d8:	00bfffc4 	movi	r2,-1
   250dc:	4a7fffc4 	addi	r9,r9,-1
